Certificate:
    Data:
        Version: 3 (0x2)
        Serial Number:
            16:90:34:a7:9f:cd:7d:d8:12:cf:9f:08:ee:51:c9:c1:14:d3:2f:f5
        Signature Algorithm: sha256WithRSAEncryption
        Issuer: C=BR, O=TSI202402, OU=TSI202402 CA COMPONENT, CN=TSI202402 CA COMPONENT
        Validity
            Not Before: Feb  6 00:49:54 2025 GMT
            Not After : Feb  6 00:49:54 2026 GMT
        Subject: C=BR, ST=GO, L=MORRINHOS, O=TSI202402, OU=TSI202402 SERVER, CN=Samuel Toledo
        Subject Public Key Info:
            Public Key Algorithm: rsaEncryption
                Public-Key: (2048 bit)
                Modulus:
                    00:d8:09:e0:f9:ee:fd:f0:5b:06:82:b0:0a:bc:fd:
                    a2:f1:4e:1b:48:c9:1e:5a:03:a1:27:00:f5:c4:4a:
                    dc:c1:ed:ca:49:ab:35:d6:09:b3:35:f8:0b:fc:61:
                    f4:ba:2d:af:6b:f8:94:62:cc:2e:51:0e:10:eb:c3:
                    40:a7:39:7a:41:a6:d9:fb:40:9e:3c:07:6c:21:e6:
                    76:ab:6f:27:f1:62:e1:5e:06:f4:f2:ad:15:7c:3b:
                    d0:3e:ee:ad:83:31:cf:cd:15:2a:d0:81:e2:f0:b6:
                    64:4d:4e:27:bc:10:7e:6d:21:3a:3d:09:4b:0a:a4:
                    d5:48:6d:ad:58:f8:30:ef:9d:41:e5:f3:59:8f:b6:
                    ff:22:da:30:9e:f4:25:49:fe:26:6f:28:3c:48:6b:
                    66:57:55:71:fe:d4:b4:02:39:70:64:82:33:06:87:
                    5f:4c:7f:07:27:8c:66:c2:f2:0a:40:b3:64:19:d4:
                    0f:62:4b:6b:a4:c8:2b:2c:69:25:7f:75:3a:9a:de:
                    92:5e:42:b9:a4:ac:77:7b:ae:ad:19:3e:00:e7:ce:
                    a2:89:1c:b4:6d:a2:d6:8c:b1:a0:70:2c:e6:93:d1:
                    39:28:a0:70:a4:9e:e1:1d:79:3e:b9:bf:a9:17:f9:
                    13:50:70:2a:d5:1b:1e:8d:8a:2e:0b:da:9b:3f:29:
                    83:09
                Exponent: 65537 (0x10001)
        X509v3 extensions:
            X509v3 Key Usage: critical
                Digital Signature, Key Encipherment
            X509v3 Basic Constraints: 
                CA:FALSE
            X509v3 Extended Key Usage: 
                TLS Web Server Authentication, TLS Web Client Authentication
            X509v3 Subject Key Identifier: 
                E2:E8:B7:C2:0E:81:84:35:ED:2E:41:F7:64:CC:A4:C4:6D:43:6D:F6
            X509v3 Authority Key Identifier: 
                73:BF:F5:F5:21:D4:62:89:CA:AB:84:86:58:42:B4:42:D9:BA:11:10
            Authority Information Access: 
                CA Issuers - URI:http://pki.blue.se/component-ca.cer
                OCSP - URI:http://component-ca.ocsp.blue.se
            X509v3 CRL Distribution Points: 
                Full Name:
                  URI:http://pki.blue.se/component-ca.crl
            X509v3 Certificate Policies: 
                Policy: Blue Medium Assurance
            X509v3 Subject Alternative Name: 
                DNS:samueltoledo.labinfra.ti-educar.com.br
    Signature Algorithm: sha256WithRSAEncryption
    Signature Value:
        01:5d:3b:fd:8a:ab:5b:37:ca:bb:55:0e:4e:16:f9:ae:e4:79:
        42:e4:a4:aa:46:93:e1:01:90:60:10:dd:ba:7e:2f:7c:ee:58:
        2d:e6:7f:86:34:03:3c:75:58:46:25:2d:10:3c:d8:32:e5:54:
        14:92:17:6b:6f:ba:c2:38:c3:a2:77:aa:62:e8:a3:17:9c:d0:
        12:db:88:f7:92:f0:3b:c6:54:09:14:47:2a:ad:5a:08:fd:0b:
        52:95:8a:f5:ef:03:aa:a1:dd:f0:ef:c6:1c:55:72:c1:1c:e3:
        a5:f7:31:47:1a:2d:8a:87:56:bf:5f:22:89:5c:3a:40:0e:99:
        66:05:9b:d5:f0:43:1e:94:e2:24:24:0c:b3:91:32:31:23:ec:
        25:6f:73:60:45:25:16:e3:15:6a:d8:08:55:c2:96:11:f3:05:
        e2:7d:91:be:9f:4f:62:10:63:78:55:bd:01:1d:aa:e2:13:a4:
        b6:76:78:53:ec:91:7f:3c:ad:04:72:26:13:3d:78:be:91:e2:
        20:cf:cd:73:de:fe:95:70:06:78:1e:ed:16:b4:6f:48:5e:1f:
        f1:04:8a:62:ba:40:5c:a5:f1:12:d9:c1:55:db:2e:a7:a3:6b:
        bc:e0:52:e2:c8:a4:73:2d:17:0a:77:b4:81:55:8a:82:ec:1b:
        df:66:75:9d
-----BEGIN CERTIFICATE-----
MIIE1jCCA76gAwIBAgIUFpA0p5/NfdgSz58I7lHJwRTTL/UwDQYJKoZIhvcNAQEL
BQAwYzELMAkGA1UEBhMCQlIxEjAQBgNVBAoMCVRTSTIwMjQwMjEfMB0GA1UECwwW
VFNJMjAyNDAyIENBIENPTVBPTkVOVDEfMB0GA1UEAwwWVFNJMjAyNDAyIENBIENP
TVBPTkVOVDAeFw0yNTAyMDYwMDQ5NTRaFw0yNjAyMDYwMDQ5NTRaMHUxCzAJBgNV
BAYTAkJSMQswCQYDVQQIDAJHTzESMBAGA1UEBwwJTU9SUklOSE9TMRIwEAYDVQQK
DAlUU0kyMDI0MDIxGTAXBgNVBAsMEFRTSTIwMjQwMiBTRVJWRVIxFjAUBgNVBAMM
DVNhbXVlbCBUb2xlZG8wggEiMA0GCSqGSIb3DQEBAQUAA4IBDwAwggEKAoIBAQDY
CeD57v3wWwaCsAq8/aLxThtIyR5aA6EnAPXEStzB7cpJqzXWCbM1+Av8YfS6La9r
+JRizC5RDhDrw0CnOXpBptn7QJ48B2wh5narbyfxYuFeBvTyrRV8O9A+7q2DMc/N
FSrQgeLwtmRNTie8EH5tITo9CUsKpNVIba1Y+DDvnUHl81mPtv8i2jCe9CVJ/iZv
KDxIa2ZXVXH+1LQCOXBkgjMGh19MfwcnjGbC8gpAs2QZ1A9iS2ukyCssaSV/dTqa
3pJeQrmkrHd7rq0ZPgDnzqKJHLRtotaMsaBwLOaT0TkooHCknuEdeT65v6kX+RNQ
cCrVGx6Nii4L2ps/KYMJAgMBAAGjggFuMIIBajAOBgNVHQ8BAf8EBAMCBaAwCQYD
VR0TBAIwADAdBgNVHSUEFjAUBggrBgEFBQcDAQYIKwYBBQUHAwIwHQYDVR0OBBYE
FOLot8IOgYQ17S5B92TMpMRtQ232MB8GA1UdIwQYMBaAFHO/9fUh1GKJyquEhlhC
tELZuhEQMG0GCCsGAQUFBwEBBGEwXzAvBggrBgEFBQcwAoYjaHR0cDovL3BraS5i
bHVlLnNlL2NvbXBvbmVudC1jYS5jZXIwLAYIKwYBBQUHMAGGIGh0dHA6Ly9jb21w
b25lbnQtY2Eub2NzcC5ibHVlLnNlMDQGA1UdHwQtMCswKaAnoCWGI2h0dHA6Ly9w
a2kuYmx1ZS5zZS9jb21wb25lbnQtY2EuY3JsMBYGA1UdIAQPMA0wCwYJKwYBBAEA
AQcIMDEGA1UdEQQqMCiCJnNhbXVlbHRvbGVkby5sYWJpbmZyYS50aS1lZHVjYXIu
Y29tLmJyMA0GCSqGSIb3DQEBCwUAA4IBAQABXTv9iqtbN8q7VQ5OFvmu5HlC5KSq
RpPhAZBgEN26fi987lgt5n+GNAM8dVhGJS0QPNgy5VQUkhdrb7rCOMOid6pi6KMX
nNAS24j3kvA7xlQJFEcqrVoI/QtSlYr17wOqod3w78YcVXLBHOOl9zFHGi2Kh1a/
XyKJXDpADplmBZvV8EMelOIkJAyzkTIxI+wlb3NgRSUW4xVq2AhVwpYR8wXifZG+
n09iEGN4Vb0BHariE6S2dnhT7JF/PK0EciYTPXi+keIgz81z3v6VcAZ4Hu0WtG9I
Xh/xBIpiukBcpfES2cFV2y6no2u84FLiyKRzLRcKd7SBVYqC7BvfZnWd
-----END CERTIFICATE-----
