Certificate:
    Data:
        Version: 3 (0x2)
        Serial Number:
            32:8e:0c:ef:13:a2:ec:3e:93:57:e6:04:d3:58:4c:c5:10:3b:2b:7a
        Signature Algorithm: sha256WithRSAEncryption
        Issuer: C=BR, O=TSI202402, OU=TSI202402 CA COMPONENT, CN=TSI202402 CA COMPONENT
        Validity
            Not Before: Feb  7 02:50:41 2025 GMT
            Not After : Feb  7 02:50:41 2026 GMT
        Subject: C=BR, ST=GO, L=MORRINHOS, O=TSI202402, OU=TSI202402 SERVER, CN=Samuel Toledo
        Subject Public Key Info:
            Public Key Algorithm: rsaEncryption
                Public-Key: (2048 bit)
                Modulus:
                    00:b8:8f:2e:28:53:28:7c:c0:4d:24:6a:06:3f:e2:
                    4c:a6:8e:e0:c8:a8:af:80:ad:5d:6f:d1:43:1a:cf:
                    47:a7:30:d9:ff:b8:35:bf:78:60:33:10:b8:59:e2:
                    21:12:e8:82:36:d6:84:30:47:16:d9:77:42:0f:c2:
                    44:77:b6:3f:e2:fe:da:d4:57:88:e9:18:3c:a2:e7:
                    90:1c:d7:c9:86:35:1f:15:9e:0d:12:55:b4:70:3d:
                    5d:89:4d:4a:38:d4:a8:1c:11:fc:12:61:ab:f9:08:
                    ca:af:51:77:d4:ee:21:fd:04:55:09:d3:93:8f:2d:
                    b7:1a:d0:95:e3:07:3b:5e:53:2f:0f:8f:ea:7e:ad:
                    45:88:dc:e1:5d:61:3b:1c:cd:e1:6c:8b:0e:d9:03:
                    13:0b:c3:75:e8:db:3b:b8:01:30:ea:21:61:7a:23:
                    e1:b5:1c:f5:f3:85:e2:d1:86:05:54:41:48:f4:7c:
                    9b:73:5a:4f:e3:00:2b:7b:c8:9c:f2:99:e7:6f:d7:
                    4c:43:fe:20:8c:79:45:79:ec:0a:06:6d:fe:3a:ce:
                    a0:77:4a:77:75:f9:a2:ba:ec:63:8c:6f:41:f8:69:
                    69:fc:8c:79:fb:f7:80:ae:a4:f3:77:8b:0c:b5:1d:
                    59:bc:6d:71:6e:6d:83:01:f6:af:d4:ce:10:fd:dc:
                    ce:3f
                Exponent: 65537 (0x10001)
        X509v3 extensions:
            X509v3 Key Usage: critical
                Digital Signature, Key Encipherment
            X509v3 Basic Constraints: 
                CA:FALSE
            X509v3 Extended Key Usage: 
                TLS Web Server Authentication, TLS Web Client Authentication
            X509v3 Subject Key Identifier: 
                54:48:4C:C8:2F:6F:DF:B4:66:DD:4E:FF:FE:B3:AD:38:2C:66:E8:15
            X509v3 Authority Key Identifier: 
                73:BF:F5:F5:21:D4:62:89:CA:AB:84:86:58:42:B4:42:D9:BA:11:10
            Authority Information Access: 
                CA Issuers - URI:http://pki.blue.se/component-ca.cer
                OCSP - URI:http://component-ca.ocsp.blue.se
            X509v3 CRL Distribution Points: 
                Full Name:
                  URI:http://pki.blue.se/component-ca.crl
            X509v3 Certificate Policies: 
                Policy: Blue Medium Assurance
            X509v3 Subject Alternative Name: 
                DNS:samueltoledo.tsi2024.labinfra.ti-educar.com.br
    Signature Algorithm: sha256WithRSAEncryption
    Signature Value:
        49:ee:8c:2e:a0:98:5d:50:c7:f8:19:b3:4f:f9:bc:f7:f5:45:
        7f:bd:fa:10:ff:e9:0b:bf:98:59:90:6c:e0:c3:70:56:a6:52:
        10:40:b5:5a:20:91:8c:90:a4:d3:92:a1:5d:9f:fe:b9:0d:74:
        16:1a:da:41:b1:1f:e6:82:60:90:d0:e5:0e:37:12:0b:fa:ae:
        41:0a:1a:46:43:ec:3d:84:e8:26:b9:29:95:e4:cb:e0:2a:be:
        a6:98:7c:5d:cf:7b:15:84:21:54:e9:83:8e:a7:8d:13:75:7c:
        5e:42:5c:54:18:f3:ba:fe:9d:ea:89:5f:4a:d7:c5:a2:83:13:
        8b:b1:86:e5:ee:6d:15:d4:ba:1e:8f:f7:da:06:bd:e8:50:a4:
        21:ad:65:64:32:c9:1f:27:8c:26:9e:37:19:3b:fa:3f:63:64:
        e1:c9:3c:fa:e3:61:00:66:27:87:64:f1:3a:7e:37:d5:e4:4e:
        87:82:b3:f1:ff:05:7a:29:2a:fd:a7:d3:cc:20:f9:09:78:46:
        c1:d1:2e:37:2b:de:d6:97:3c:66:9a:1f:db:79:b1:fe:0a:4a:
        b0:10:90:c8:f1:b0:7d:4d:99:81:23:8d:bc:94:42:27:65:a1:
        1c:f5:31:8a:1e:d2:28:c6:4f:fb:a7:6f:a5:bf:58:71:46:99:
        82:7f:20:0c
-----BEGIN CERTIFICATE-----
MIIE3jCCA8agAwIBAgIUMo4M7xOi7D6TV+YE01hMxRA7K3owDQYJKoZIhvcNAQEL
BQAwYzELMAkGA1UEBhMCQlIxEjAQBgNVBAoMCVRTSTIwMjQwMjEfMB0GA1UECwwW
VFNJMjAyNDAyIENBIENPTVBPTkVOVDEfMB0GA1UEAwwWVFNJMjAyNDAyIENBIENP
TVBPTkVOVDAeFw0yNTAyMDcwMjUwNDFaFw0yNjAyMDcwMjUwNDFaMHUxCzAJBgNV
BAYTAkJSMQswCQYDVQQIDAJHTzESMBAGA1UEBwwJTU9SUklOSE9TMRIwEAYDVQQK
DAlUU0kyMDI0MDIxGTAXBgNVBAsMEFRTSTIwMjQwMiBTRVJWRVIxFjAUBgNVBAMM
DVNhbXVlbCBUb2xlZG8wggEiMA0GCSqGSIb3DQEBAQUAA4IBDwAwggEKAoIBAQC4
jy4oUyh8wE0kagY/4kymjuDIqK+ArV1v0UMaz0enMNn/uDW/eGAzELhZ4iES6II2
1oQwRxbZd0IPwkR3tj/i/trUV4jpGDyi55Ac18mGNR8Vng0SVbRwPV2JTUo41Kgc
EfwSYav5CMqvUXfU7iH9BFUJ05OPLbca0JXjBzteUy8Pj+p+rUWI3OFdYTsczeFs
iw7ZAxMLw3Xo2zu4ATDqIWF6I+G1HPXzheLRhgVUQUj0fJtzWk/jACt7yJzymedv
10xD/iCMeUV57AoGbf46zqB3Snd1+aK67GOMb0H4aWn8jHn794CupPN3iwy1HVm8
bXFubYMB9q/UzhD93M4/AgMBAAGjggF2MIIBcjAOBgNVHQ8BAf8EBAMCBaAwCQYD
VR0TBAIwADAdBgNVHSUEFjAUBggrBgEFBQcDAQYIKwYBBQUHAwIwHQYDVR0OBBYE
FFRITMgvb9+0Zt1O//6zrTgsZugVMB8GA1UdIwQYMBaAFHO/9fUh1GKJyquEhlhC
tELZuhEQMG0GCCsGAQUFBwEBBGEwXzAvBggrBgEFBQcwAoYjaHR0cDovL3BraS5i
bHVlLnNlL2NvbXBvbmVudC1jYS5jZXIwLAYIKwYBBQUHMAGGIGh0dHA6Ly9jb21w
b25lbnQtY2Eub2NzcC5ibHVlLnNlMDQGA1UdHwQtMCswKaAnoCWGI2h0dHA6Ly9w
a2kuYmx1ZS5zZS9jb21wb25lbnQtY2EuY3JsMBYGA1UdIAQPMA0wCwYJKwYBBAEA
AQcIMDkGA1UdEQQyMDCCLnNhbXVlbHRvbGVkby50c2kyMDI0LmxhYmluZnJhLnRp
LWVkdWNhci5jb20uYnIwDQYJKoZIhvcNAQELBQADggEBAEnujC6gmF1Qx/gZs0/5
vPf1RX+9+hD/6Qu/mFmQbODDcFamUhBAtVogkYyQpNOSoV2f/rkNdBYa2kGxH+aC
YJDQ5Q43Egv6rkEKGkZD7D2E6Ca5KZXky+AqvqaYfF3PexWEIVTpg46njRN1fF5C
XFQY87r+neqJX0rXxaKDE4uxhuXubRXUuh6P99oGvehQpCGtZWQyyR8njCaeNxk7
+j9jZOHJPPrjYQBmJ4dk8Tp+N9XkToeCs/H/BXopKv2n08wg+Ql4RsHRLjcr3taX
PGaaH9t5sf4KSrAQkMjxsH1NmYEjjbyUQidloRz1MYoe0ijGT/unb6W/WHFGmYJ/
IAw=
-----END CERTIFICATE-----
