Certificate:
    Data:
        Version: 3 (0x2)
        Serial Number:
            72:a6:69:42:cd:69:40:84:1e:30:11:f5:94:7e:38:d9:18:e4:f3:c6
        Signature Algorithm: sha256WithRSAEncryption
        Issuer: C=BR, O=TSI202402, OU=TSI202402 CA COMPONENT, CN=TSI202402 CA COMPONENT
        Validity
            Not Before: Feb  6 01:27:24 2025 GMT
            Not After : Feb  6 01:27:24 2026 GMT
        Subject: C=BR, ST=GO, L=MORRINHOS, O=TSI202402, OU=TSI202402 SERVER, CN=Samuel Toledo
        Subject Public Key Info:
            Public Key Algorithm: rsaEncryption
                Public-Key: (2048 bit)
                Modulus:
                    00:b6:4b:e3:dc:5a:86:fe:24:29:6a:b5:e1:0a:44:
                    58:50:a2:b3:63:14:c0:2d:96:36:16:39:05:ad:9f:
                    2c:34:53:f6:22:a9:66:41:62:cc:78:ce:1b:d1:b1:
                    fb:12:70:0f:0e:fd:1e:f1:af:6d:2e:ca:f1:b2:c6:
                    22:37:50:6f:c1:37:dc:24:3f:69:90:87:d0:a8:92:
                    44:d8:cd:9a:c1:00:e4:c7:41:97:6b:b6:3c:9d:71:
                    f3:69:cc:b5:83:fb:9c:71:fd:5b:d1:3e:92:75:52:
                    24:64:a9:25:bf:ce:c4:a0:68:c7:33:ab:86:98:94:
                    7c:8d:00:a5:da:c5:3c:8e:36:b2:30:93:39:e9:5b:
                    3e:f9:5d:4b:e6:8a:1a:4e:80:bd:22:f6:75:9b:24:
                    1f:9d:4f:12:77:8b:27:90:05:f5:23:90:8c:4c:e5:
                    d3:04:7a:b8:d1:74:b4:89:f2:39:2a:f1:e0:01:51:
                    c1:e1:35:09:c5:59:96:c8:cf:83:30:85:7c:1d:6b:
                    22:04:87:8c:38:07:cd:5f:d1:a2:07:d1:a8:f8:76:
                    d0:f4:0d:44:3d:7a:20:02:10:bd:c3:30:65:29:89:
                    da:f5:ab:f9:c8:a5:ac:b0:74:ad:2b:06:d1:c6:ec:
                    1e:5f:d1:05:3f:4d:6c:ab:71:79:ed:ed:72:2d:b5:
                    72:6d
                Exponent: 65537 (0x10001)
        X509v3 extensions:
            X509v3 Key Usage: critical
                Digital Signature, Key Encipherment
            X509v3 Basic Constraints: 
                CA:FALSE
            X509v3 Extended Key Usage: 
                TLS Web Server Authentication, TLS Web Client Authentication
            X509v3 Subject Key Identifier: 
                87:C4:08:76:E3:D4:D6:C2:38:8A:49:B5:CC:93:AF:78:1F:02:3B:D4
            X509v3 Authority Key Identifier: 
                73:BF:F5:F5:21:D4:62:89:CA:AB:84:86:58:42:B4:42:D9:BA:11:10
            Authority Information Access: 
                CA Issuers - URI:http://pki.blue.se/component-ca.cer
                OCSP - URI:http://component-ca.ocsp.blue.se
            X509v3 CRL Distribution Points: 
                Full Name:
                  URI:http://pki.blue.se/component-ca.crl
            X509v3 Certificate Policies: 
                Policy: Blue Medium Assurance
            X509v3 Subject Alternative Name: 
                DNS:samueltoledo.tsi2024.labinfra.ti-educar.com.br
    Signature Algorithm: sha256WithRSAEncryption
    Signature Value:
        55:06:76:7b:5e:28:9c:be:0b:b4:b2:43:87:31:66:a6:56:8e:
        40:3e:08:e5:81:16:a3:3d:2e:0d:ad:cf:10:b3:24:76:4c:f9:
        fd:db:79:d8:75:ec:f9:d4:b4:bb:93:1b:d8:de:b4:aa:08:e9:
        4b:3b:6b:35:98:87:ec:41:44:23:5a:69:3c:5c:3f:1a:ca:47:
        92:48:b8:d9:5a:a6:5c:8c:0c:11:01:a2:aa:ec:71:3d:3d:a4:
        9a:5f:c8:0b:4f:c4:d6:7e:12:db:26:97:ab:a1:00:be:2f:97:
        01:2d:45:d6:79:a7:10:87:37:c4:32:cd:70:ea:5c:e9:9e:0e:
        a5:95:bf:57:87:bb:33:1e:01:84:b9:3e:c7:a8:3f:4e:0b:f7:
        45:f9:eb:82:73:30:58:c7:fe:4b:c2:88:50:f6:19:a9:d1:77:
        70:e9:f9:2a:38:85:56:25:98:f5:13:33:05:3a:7c:59:43:51:
        0f:cd:de:dd:f9:c4:52:e7:e2:17:16:76:20:fd:c6:d3:b2:1c:
        98:e2:f4:95:56:5c:aa:c9:fb:d3:e9:df:98:41:24:da:c2:c2:
        bc:36:04:55:76:f6:d9:a4:4b:3e:27:b5:3f:2b:6b:fa:3d:19:
        ac:4f:7f:a8:82:d5:31:07:09:e9:e4:15:b1:4a:dd:9a:09:ba:
        bf:ad:66:dd
-----BEGIN CERTIFICATE-----
MIIE3jCCA8agAwIBAgIUcqZpQs1pQIQeMBH1lH442Rjk88YwDQYJKoZIhvcNAQEL
BQAwYzELMAkGA1UEBhMCQlIxEjAQBgNVBAoMCVRTSTIwMjQwMjEfMB0GA1UECwwW
VFNJMjAyNDAyIENBIENPTVBPTkVOVDEfMB0GA1UEAwwWVFNJMjAyNDAyIENBIENP
TVBPTkVOVDAeFw0yNTAyMDYwMTI3MjRaFw0yNjAyMDYwMTI3MjRaMHUxCzAJBgNV
BAYTAkJSMQswCQYDVQQIDAJHTzESMBAGA1UEBwwJTU9SUklOSE9TMRIwEAYDVQQK
DAlUU0kyMDI0MDIxGTAXBgNVBAsMEFRTSTIwMjQwMiBTRVJWRVIxFjAUBgNVBAMM
DVNhbXVlbCBUb2xlZG8wggEiMA0GCSqGSIb3DQEBAQUAA4IBDwAwggEKAoIBAQC2
S+PcWob+JClqteEKRFhQorNjFMAtljYWOQWtnyw0U/YiqWZBYsx4zhvRsfsScA8O
/R7xr20uyvGyxiI3UG/BN9wkP2mQh9CokkTYzZrBAOTHQZdrtjydcfNpzLWD+5xx
/VvRPpJ1UiRkqSW/zsSgaMczq4aYlHyNAKXaxTyONrIwkznpWz75XUvmihpOgL0i
9nWbJB+dTxJ3iyeQBfUjkIxM5dMEerjRdLSJ8jkq8eABUcHhNQnFWZbIz4MwhXwd
ayIEh4w4B81f0aIH0aj4dtD0DUQ9eiACEL3DMGUpidr1q/nIpaywdK0rBtHG7B5f
0QU/TWyrcXnt7XIttXJtAgMBAAGjggF2MIIBcjAOBgNVHQ8BAf8EBAMCBaAwCQYD
VR0TBAIwADAdBgNVHSUEFjAUBggrBgEFBQcDAQYIKwYBBQUHAwIwHQYDVR0OBBYE
FIfECHbj1NbCOIpJtcyTr3gfAjvUMB8GA1UdIwQYMBaAFHO/9fUh1GKJyquEhlhC
tELZuhEQMG0GCCsGAQUFBwEBBGEwXzAvBggrBgEFBQcwAoYjaHR0cDovL3BraS5i
bHVlLnNlL2NvbXBvbmVudC1jYS5jZXIwLAYIKwYBBQUHMAGGIGh0dHA6Ly9jb21w
b25lbnQtY2Eub2NzcC5ibHVlLnNlMDQGA1UdHwQtMCswKaAnoCWGI2h0dHA6Ly9w
a2kuYmx1ZS5zZS9jb21wb25lbnQtY2EuY3JsMBYGA1UdIAQPMA0wCwYJKwYBBAEA
AQcIMDkGA1UdEQQyMDCCLnNhbXVlbHRvbGVkby50c2kyMDI0LmxhYmluZnJhLnRp
LWVkdWNhci5jb20uYnIwDQYJKoZIhvcNAQELBQADggEBAFUGdnteKJy+C7SyQ4cx
ZqZWjkA+COWBFqM9Lg2tzxCzJHZM+f3bedh17PnUtLuTG9jetKoI6Us7azWYh+xB
RCNaaTxcPxrKR5JIuNlaplyMDBEBoqrscT09pJpfyAtPxNZ+Etsml6uhAL4vlwEt
RdZ5pxCHN8QyzXDqXOmeDqWVv1eHuzMeAYS5PseoP04L90X564JzMFjH/kvCiFD2
GanRd3Dp+So4hVYlmPUTMwU6fFlDUQ/N3t35xFLn4hcWdiD9xtOyHJji9JVWXKrJ
+9Pp35hBJNrCwrw2BFV29tmkSz4ntT8ra/o9GaxPf6iC1TEHCenkFbFK3ZoJur+t
Zt0=
-----END CERTIFICATE-----
