Certificate:
    Data:
        Version: 3 (0x2)
        Serial Number:
            48:0c:01:11:32:d1:60:94:c5:c2:bf:7a:ae:ee:3f:b0:c6:d9:8d:cd
        Signature Algorithm: sha256WithRSAEncryption
        Issuer: C=BR, O=TSI202402, OU=TSI202402 CA NETWORK, CN=TSI202402 CA NETWORK
        Validity
            Not Before: Feb  4 23:41:03 2025 GMT
            Not After : Feb  4 23:41:03 2035 GMT
        Subject: C=BR, O=TSI202402, OU=TSI202402 CA IDENTITY, CN=TSI202402 CA IDENTITY
        Subject Public Key Info:
            Public Key Algorithm: rsaEncryption
                Public-Key: (2048 bit)
                Modulus:
                    00:a1:81:1a:e9:b3:03:a0:4d:eb:54:65:e5:e2:fb:
                    a8:21:7c:d0:77:a6:3c:3e:15:9e:b0:66:40:01:8b:
                    d0:0b:11:1d:7c:7b:fe:cf:db:a0:4a:cd:d8:99:89:
                    32:42:b0:aa:e4:e4:04:8f:d3:24:44:53:15:c5:8f:
                    ee:a3:9a:db:3b:26:d3:16:5a:8f:c1:e1:f3:f1:0c:
                    f3:06:60:5c:1a:fa:f4:ec:8f:26:9b:bd:04:6b:8f:
                    85:4d:d5:fd:bf:0e:96:1a:f6:8b:ee:db:30:f8:3e:
                    5f:a1:9f:1e:1e:5b:00:02:cb:61:5f:74:a9:65:8e:
                    0f:08:d7:08:60:6f:7b:9e:0b:dd:64:36:b5:e9:ee:
                    4e:29:27:a4:a5:1d:a8:7f:5c:c5:c1:84:86:6d:36:
                    69:0f:c3:33:02:7b:40:1e:6b:c8:9e:8d:f4:35:ce:
                    f3:a3:9f:73:3f:ce:13:11:2a:cc:f9:11:52:4e:ff:
                    a3:d3:0d:58:bc:03:e9:b2:1e:18:82:eb:f4:8c:f9:
                    2d:e9:23:52:72:72:d3:05:89:f9:e1:06:0d:19:99:
                    1c:fc:87:4a:b9:0b:fd:08:9d:62:23:2f:18:e8:00:
                    6a:aa:62:50:a2:16:d3:60:be:21:d1:a0:93:4f:0d:
                    b7:a2:19:47:d6:fb:5e:78:89:6c:64:91:85:62:6c:
                    a3:bb
                Exponent: 65537 (0x10001)
        X509v3 extensions:
            X509v3 Key Usage: critical
                Certificate Sign, CRL Sign
            X509v3 Basic Constraints: critical
                CA:TRUE, pathlen:0
            X509v3 Subject Key Identifier: 
                A5:3B:D8:F7:E5:C6:4A:B4:02:39:5C:A3:3A:3D:31:CE:F7:59:AA:9E
            X509v3 Authority Key Identifier: 
                A9:55:E4:22:21:3D:9C:B6:9B:5E:CC:D8:33:C5:72:78:C1:D2:1C:29
            Authority Information Access: 
                CA Issuers - URI:http://pki.blue.se/network-ca.cer
            X509v3 CRL Distribution Points: 
                Full Name:
                  URI:http://pki.blue.se/network-ca.crl
            X509v3 Certificate Policies: 
                Policy: Blue High Assurance
    Signature Algorithm: sha256WithRSAEncryption
    Signature Value:
        5d:82:7a:83:75:ed:c9:ce:cb:69:ba:65:82:35:b1:0a:52:67:
        de:0d:d8:bc:2b:41:88:37:97:d9:0e:00:9c:c7:a2:66:d9:b6:
        0b:b3:54:e4:ba:6a:8b:8f:3b:3e:06:3a:ba:a4:60:23:6b:ee:
        f2:28:91:69:f6:fa:a2:b8:1d:6d:8b:8f:1f:0f:3c:44:c6:6d:
        91:8b:91:b6:ab:b0:f0:89:34:f6:06:73:1b:6a:71:53:b4:a8:
        98:71:b5:6c:e2:69:b0:7e:5f:2a:78:56:de:70:56:71:10:91:
        a9:d8:91:2e:f4:c3:5f:e8:59:4f:69:8f:1e:f6:95:e3:ed:e4:
        fe:ef:43:d7:17:8a:ee:ac:e6:36:24:a3:d2:2a:02:9f:36:22:
        04:72:6f:c9:26:c6:90:ac:cf:6f:9a:f8:b3:ec:f1:a0:91:52:
        bf:be:2e:4c:4a:a5:4e:23:7f:a7:ff:ac:68:7d:c9:6e:20:63:
        77:2c:bd:41:68:12:cb:4e:b4:9b:6b:7e:83:39:b3:b1:ae:ae:
        c9:6a:6a:c8:d6:40:7a:be:2a:3e:32:1e:c8:8a:7b:85:d1:9a:
        9d:01:8e:e7:2f:93:43:3e:64:1e:f0:15:f4:9d:d1:a8:78:2b:
        ac:29:2d:ec:a7:21:5d:58:ca:25:94:e6:f4:89:53:1a:f3:2b:
        59:9f:9f:ed
-----BEGIN CERTIFICATE-----
MIIEQTCCAymgAwIBAgIUSAwBETLRYJTFwr96ru4/sMbZjc0wDQYJKoZIhvcNAQEL
BQAwXzELMAkGA1UEBhMCQlIxEjAQBgNVBAoMCVRTSTIwMjQwMjEdMBsGA1UECwwU
VFNJMjAyNDAyIENBIE5FVFdPUksxHTAbBgNVBAMMFFRTSTIwMjQwMiBDQSBORVRX
T1JLMB4XDTI1MDIwNDIzNDEwM1oXDTM1MDIwNDIzNDEwM1owYTELMAkGA1UEBhMC
QlIxEjAQBgNVBAoMCVRTSTIwMjQwMjEeMBwGA1UECwwVVFNJMjAyNDAyIENBIElE
RU5USVRZMR4wHAYDVQQDDBVUU0kyMDI0MDIgQ0EgSURFTlRJVFkwggEiMA0GCSqG
SIb3DQEBAQUAA4IBDwAwggEKAoIBAQChgRrpswOgTetUZeXi+6ghfNB3pjw+FZ6w
ZkABi9ALER18e/7P26BKzdiZiTJCsKrk5ASP0yREUxXFj+6jmts7JtMWWo/B4fPx
DPMGYFwa+vTsjyabvQRrj4VN1f2/DpYa9ovu2zD4Pl+hnx4eWwACy2FfdKlljg8I
1whgb3ueC91kNrXp7k4pJ6SlHah/XMXBhIZtNmkPwzMCe0Aea8iejfQ1zvOjn3M/
zhMRKsz5EVJO/6PTDVi8A+myHhiC6/SM+S3pI1JyctMFifnhBg0ZmRz8h0q5C/0I
nWIjLxjoAGqqYlCiFtNgviHRoJNPDbeiGUfW+154iWxkkYVibKO7AgMBAAGjgfIw
ge8wDgYDVR0PAQH/BAQDAgEGMBIGA1UdEwEB/wQIMAYBAf8CAQAwHQYDVR0OBBYE
FKU72Pflxkq0Ajlcozo9Mc73WaqeMB8GA1UdIwQYMBaAFKlV5CIhPZy2m17M2DPF
cnjB0hwpMD0GCCsGAQUFBwEBBDEwLzAtBggrBgEFBQcwAoYhaHR0cDovL3BraS5i
bHVlLnNlL25ldHdvcmstY2EuY2VyMDIGA1UdHwQrMCkwJ6AloCOGIWh0dHA6Ly9w
a2kuYmx1ZS5zZS9uZXR3b3JrLWNhLmNybDAWBgNVHSAEDzANMAsGCSsGAQQBAAEH
CjANBgkqhkiG9w0BAQsFAAOCAQEAXYJ6g3Xtyc7LabplgjWxClJn3g3YvCtBiDeX
2Q4AnMeiZtm2C7NU5Lpqi487PgY6uqRgI2vu8iiRafb6orgdbYuPHw88RMZtkYuR
tquw8Ik09gZzG2pxU7SomHG1bOJpsH5fKnhW3nBWcRCRqdiRLvTDX+hZT2mPHvaV
4+3k/u9D1xeK7qzmNiSj0ioCnzYiBHJvySbGkKzPb5r4s+zxoJFSv74uTEqlTiN/
p/+saH3JbiBjdyy9QWgSy060m2t+gzmzsa6uyWpqyNZAer4qPjIeyIp7hdGanQGO
5y+TQz5kHvAV9J3RqHgrrCkt7KchXVjKJZTm9IlTGvMrWZ+f7Q==
-----END CERTIFICATE-----
Certificate:
    Data:
        Version: 3 (0x2)
        Serial Number:
            33:4d:ce:cd:83:49:28:a7:5d:c7:ed:85:cb:af:6f:2e:d8:eb:b2:d7
        Signature Algorithm: sha256WithRSAEncryption
        Issuer: C=BR, O=TSI202402, OU=TSI2024 - Certificadora de Servicos, CN=TSI Certificados - TLS CA
        Validity
            Not Before: Feb  4 23:01:56 2025 GMT
            Not After : Feb  4 23:01:56 2045 GMT
        Subject: C=BR, O=TSI202402, OU=TSI202402 CA NETWORK, CN=TSI202402 CA NETWORK
        Subject Public Key Info:
            Public Key Algorithm: rsaEncryption
                Public-Key: (2048 bit)
                Modulus:
                    00:d8:49:88:4d:cb:70:c5:b3:ab:29:e7:32:2b:ab:
                    04:40:ce:63:4a:8b:7b:fc:96:fd:96:44:5f:be:41:
                    c6:21:ff:94:a0:ed:99:26:33:a2:3d:49:fd:6b:98:
                    ac:78:c3:00:ec:ec:aa:bc:be:c0:e3:66:c3:14:6f:
                    1b:83:33:13:00:b1:9d:95:7c:ed:2c:c7:cd:1a:af:
                    e4:59:85:87:84:97:9f:e6:ad:7e:00:d0:e9:e6:17:
                    3c:e4:fa:87:94:61:34:cc:53:fa:ae:88:90:d3:5e:
                    b1:47:23:8e:33:6a:23:37:4b:6e:23:20:0b:28:0e:
                    d7:e0:0d:71:4f:f5:00:d2:5b:2a:81:bc:35:e3:8d:
                    5d:d3:ed:06:79:e5:cf:74:c0:81:e7:10:97:50:b0:
                    34:5c:13:c4:39:42:f1:3f:98:b6:4d:35:74:40:78:
                    17:bd:05:da:17:f7:d8:a5:e4:2a:a8:cc:87:04:d3:
                    c0:20:f0:1c:4c:42:10:43:47:12:5c:43:22:79:25:
                    61:ca:1f:4b:bc:e2:2b:fe:c9:c2:d2:45:ba:c4:ad:
                    4d:52:48:73:63:d2:c9:30:d3:c3:84:a7:f1:22:d2:
                    43:ba:86:50:0b:a9:9a:22:63:b0:65:50:04:53:bf:
                    9e:ef:19:c5:b1:76:07:18:e0:0c:84:53:29:67:6b:
                    52:bf
                Exponent: 65537 (0x10001)
        X509v3 extensions:
            X509v3 Key Usage: critical
                Certificate Sign, CRL Sign
            X509v3 Basic Constraints: critical
                CA:TRUE
            X509v3 Subject Key Identifier: 
                A9:55:E4:22:21:3D:9C:B6:9B:5E:CC:D8:33:C5:72:78:C1:D2:1C:29
            X509v3 Authority Key Identifier: 
                D9:CB:F6:FD:D1:F7:52:6A:C6:B9:41:3F:62:AE:B0:A1:93:E3:1B:13
            Authority Information Access: 
                CA Issuers - URI:http://pki.ts202402.mho.ifgoiano.edu.br/tls-ca.cer
            X509v3 CRL Distribution Points: 
                Full Name:
                  URI:http://pki.ts202402.mho.ifgoiano.edu.br/tls-ca.crl
    Signature Algorithm: sha256WithRSAEncryption
    Signature Value:
        86:c4:65:17:2d:96:26:67:16:4c:82:aa:2d:b0:54:b8:3b:7e:
        7d:20:5a:39:b8:c3:04:ba:aa:70:26:5f:f6:7d:12:81:de:24:
        26:22:9a:97:43:0e:2f:6b:a6:59:98:05:e2:c0:54:bd:0a:30:
        f1:0e:4c:f9:96:85:ea:22:13:c2:81:b4:e2:34:7e:db:2a:a8:
        a3:fc:51:08:dd:09:7b:5b:f6:a1:2c:c8:d1:7e:39:7c:b2:e3:
        71:a9:22:46:9c:83:25:32:10:02:43:a7:fd:f1:5d:36:e7:81:
        e4:de:84:c9:0a:68:1f:0c:f3:2f:1c:14:98:22:3e:3d:21:3f:
        47:60:12:0d:ea:4f:43:95:54:07:d5:14:14:b3:7d:31:6d:ea:
        76:de:18:0f:fb:63:ec:3b:91:28:3d:40:94:7f:b9:2a:b2:c9:
        f5:64:5a:55:11:53:6d:79:db:b3:f0:f2:70:1a:b8:be:93:aa:
        bc:71:44:8d:a4:1c:06:ec:58:82:c0:40:53:a8:0f:70:47:bb:
        c6:46:0c:d2:73:6e:26:a1:62:05:11:93:a1:49:76:ce:fa:4f:
        01:37:c5:41:4d:13:f2:c3:ee:9a:72:8a:5d:ba:8f:b8:3d:a8:
        52:55:87:5d:ac:e3:86:4a:17:0a:88:bd:83:eb:9d:6f:29:d5:
        d3:2f:ef:b2
-----BEGIN CERTIFICATE-----
MIIEWjCCA0KgAwIBAgIUM03OzYNJKKddx+2Fy69vLtjrstcwDQYJKoZIhvcNAQEL
BQAwczELMAkGA1UEBhMCQlIxEjAQBgNVBAoMCVRTSTIwMjQwMjEsMCoGA1UECwwj
VFNJMjAyNCAtIENlcnRpZmljYWRvcmEgZGUgU2Vydmljb3MxIjAgBgNVBAMMGVRT
SSBDZXJ0aWZpY2Fkb3MgLSBUTFMgQ0EwHhcNMjUwMjA0MjMwMTU2WhcNNDUwMjA0
MjMwMTU2WjBfMQswCQYDVQQGEwJCUjESMBAGA1UECgwJVFNJMjAyNDAyMR0wGwYD
VQQLDBRUU0kyMDI0MDIgQ0EgTkVUV09SSzEdMBsGA1UEAwwUVFNJMjAyNDAyIENB
IE5FVFdPUkswggEiMA0GCSqGSIb3DQEBAQUAA4IBDwAwggEKAoIBAQDYSYhNy3DF
s6sp5zIrqwRAzmNKi3v8lv2WRF++QcYh/5Sg7ZkmM6I9Sf1rmKx4wwDs7Kq8vsDj
ZsMUbxuDMxMAsZ2VfO0sx80ar+RZhYeEl5/mrX4A0OnmFzzk+oeUYTTMU/quiJDT
XrFHI44zaiM3S24jIAsoDtfgDXFP9QDSWyqBvDXjjV3T7QZ55c90wIHnEJdQsDRc
E8Q5QvE/mLZNNXRAeBe9BdoX99il5CqozIcE08Ag8BxMQhBDRxJcQyJ5JWHKH0u8
4iv+ycLSRbrErU1SSHNj0skw08OEp/Ei0kO6hlALqZoiY7BlUARTv57vGcWxdgcY
4AyEUylna1K/AgMBAAGjgfkwgfYwDgYDVR0PAQH/BAQDAgEGMA8GA1UdEwEB/wQF
MAMBAf8wHQYDVR0OBBYEFKlV5CIhPZy2m17M2DPFcnjB0hwpMB8GA1UdIwQYMBaA
FNnL9v3R91JqxrlBP2KusKGT4xsTME4GCCsGAQUFBwEBBEIwQDA+BggrBgEFBQcw
AoYyaHR0cDovL3BraS50czIwMjQwMi5taG8uaWZnb2lhbm8uZWR1LmJyL3Rscy1j
YS5jZXIwQwYDVR0fBDwwOjA4oDagNIYyaHR0cDovL3BraS50czIwMjQwMi5taG8u
aWZnb2lhbm8uZWR1LmJyL3Rscy1jYS5jcmwwDQYJKoZIhvcNAQELBQADggEBAIbE
ZRctliZnFkyCqi2wVLg7fn0gWjm4wwS6qnAmX/Z9EoHeJCYimpdDDi9rplmYBeLA
VL0KMPEOTPmWheoiE8KBtOI0ftsqqKP8UQjdCXtb9qEsyNF+OXyy43GpIkacgyUy
EAJDp/3xXTbngeTehMkKaB8M8y8cFJgiPj0hP0dgEg3qT0OVVAfVFBSzfTFt6nbe
GA/7Y+w7kSg9QJR/uSqyyfVkWlURU21527Pw8nAauL6TqrxxRI2kHAbsWILAQFOo
D3BHu8ZGDNJzbiahYgURk6FJds76TwE3xUFNE/LD7ppyil26j7g9qFJVh12s44ZK
FwqIvYPrnW8p1dMv77I=
-----END CERTIFICATE-----
Certificate:
    Data:
        Version: 3 (0x2)
        Serial Number:
            6e:f3:96:20:b1:c2:fd:4b:fd:42:a0:08:d2:2b:a8:dc:aa:c2:4e:ad
        Signature Algorithm: sha256WithRSAEncryption
        Issuer: C=BR, O=TSI202402, OU=TSI202402 - CA, CN=TSI202402 - CA
        Validity
            Not Before: Nov 12 21:23:39 2024 GMT
            Not After : Nov 12 21:23:39 2044 GMT
        Subject: C=BR, O=TSI202402, OU=TSI2024 - Certificadora de Servicos, CN=TSI Certificados - TLS CA
        Subject Public Key Info:
            Public Key Algorithm: rsaEncryption
                Public-Key: (2048 bit)
                Modulus:
                    00:df:2f:10:24:24:68:47:ad:c2:3c:be:77:47:86:
                    8a:46:d9:12:f3:ae:3c:6d:b6:e2:a7:92:2a:53:e6:
                    78:c6:c0:25:41:23:3c:04:d0:d1:3c:3a:26:fa:56:
                    fd:98:b2:ba:d8:40:40:c9:61:95:7a:cf:6d:57:ad:
                    56:91:b4:0c:b6:c2:40:63:2e:e3:7f:80:b7:70:db:
                    df:7f:38:78:d1:27:d0:9a:b7:8e:b6:04:f3:d5:25:
                    dd:a8:bb:c9:b6:54:4b:96:6f:c4:d4:53:2c:30:7c:
                    35:a9:32:52:8f:75:f1:d5:29:b7:4f:ae:af:c0:0c:
                    64:f5:37:bd:96:d9:ca:1c:b5:93:a5:aa:4c:49:aa:
                    13:bf:7f:d2:4c:48:e9:b2:eb:7e:4e:59:ec:e7:f5:
                    d1:cc:7c:af:53:09:5e:d7:8b:5e:c5:44:2e:ba:4f:
                    58:d9:f6:18:73:82:b1:78:0d:a4:5c:48:0f:5f:dc:
                    dd:a3:54:ce:f4:7e:32:0f:1e:7d:b9:5e:3e:eb:fc:
                    f0:25:c0:41:c7:c8:99:a2:e6:3f:15:0c:94:55:ed:
                    1c:67:c8:67:e6:ad:8f:e3:16:36:2d:4d:92:2f:2e:
                    c7:15:a5:95:46:77:18:64:ed:4f:90:c2:75:7f:53:
                    9b:59:d7:99:e3:21:6f:23:de:f9:71:e5:b0:ee:20:
                    3e:59
                Exponent: 65537 (0x10001)
        X509v3 extensions:
            X509v3 Key Usage: critical
                Certificate Sign, CRL Sign
            X509v3 Basic Constraints: critical
                CA:TRUE
            X509v3 Subject Key Identifier: 
                D9:CB:F6:FD:D1:F7:52:6A:C6:B9:41:3F:62:AE:B0:A1:93:E3:1B:13
            X509v3 Authority Key Identifier: 
                5E:2D:2F:7B:48:FB:02:F1:2A:CA:C8:BA:C5:09:36:0E:A4:97:18:44
            Authority Information Access: 
                CA Issuers - URI:http://tsi2024.mho.ifgoiano.br/root-ca.cer
            X509v3 CRL Distribution Points: 
                Full Name:
                  URI:http://tsi2024.mho.ifgoiano.br/root-ca.crl
            X509v3 Certificate Policies: 
                Policy: TSI Verificacao de Alta seguranca
                Policy: TSI verificacao de seguranca nivel Medio
                Policy: TSI registro de TS - Time Stamping
    Signature Algorithm: sha256WithRSAEncryption
    Signature Value:
        6a:98:07:05:b4:c5:0f:92:f3:47:90:af:91:5d:49:6c:df:1d:
        e6:d8:a7:30:cb:ce:42:18:d3:b5:f5:dd:09:ff:78:31:87:34:
        88:45:0d:5e:f0:69:17:5c:74:a9:3c:0c:14:c4:b6:bd:db:32:
        07:45:a4:95:a8:71:e3:5b:b4:ed:9b:e3:c1:2b:14:a4:45:b0:
        7e:50:e8:05:e8:62:6b:76:7c:42:4b:7b:03:ee:08:6c:3b:55:
        14:89:56:a1:b4:1d:af:49:73:13:a5:29:83:61:0a:89:8c:58:
        73:40:f0:a2:54:c9:dd:f3:4e:b1:4b:97:ac:69:ff:7c:3d:5b:
        ff:21:6c:3c:3f:14:78:4a:a2:ab:93:d9:a8:3b:ca:eb:20:08:
        f2:8c:91:82:cc:11:a3:a3:28:bf:57:70:03:bc:4b:6f:4e:32:
        d7:14:b1:65:46:e6:4f:23:5d:e4:aa:78:08:13:7e:7a:c1:8e:
        62:12:ea:f3:b7:cb:8e:30:c9:ec:04:55:ee:f5:24:61:e0:98:
        2b:94:7a:ba:28:2e:d8:91:9b:a7:6c:7a:7f:97:5f:b8:aa:9b:
        4e:51:c2:f1:c6:d7:98:d2:e2:9b:80:10:76:91:b1:bd:bf:af:
        1a:ee:5d:0f:b7:11:ef:7b:02:81:8d:fe:80:2d:36:0e:20:f1:
        21:75:9d:ba
-----BEGIN CERTIFICATE-----
MIIEcjCCA1qgAwIBAgIUbvOWILHC/Uv9QqAI0iuo3KrCTq0wDQYJKoZIhvcNAQEL
BQAwUzELMAkGA1UEBhMCQlIxEjAQBgNVBAoMCVRTSTIwMjQwMjEXMBUGA1UECwwO
VFNJMjAyNDAyIC0gQ0ExFzAVBgNVBAMMDlRTSTIwMjQwMiAtIENBMB4XDTI0MTEx
MjIxMjMzOVoXDTQ0MTExMjIxMjMzOVowczELMAkGA1UEBhMCQlIxEjAQBgNVBAoM
CVRTSTIwMjQwMjEsMCoGA1UECwwjVFNJMjAyNCAtIENlcnRpZmljYWRvcmEgZGUg
U2Vydmljb3MxIjAgBgNVBAMMGVRTSSBDZXJ0aWZpY2Fkb3MgLSBUTFMgQ0EwggEi
MA0GCSqGSIb3DQEBAQUAA4IBDwAwggEKAoIBAQDfLxAkJGhHrcI8vndHhopG2RLz
rjxttuKnkipT5njGwCVBIzwE0NE8Oib6Vv2YsrrYQEDJYZV6z21XrVaRtAy2wkBj
LuN/gLdw299/OHjRJ9Cat462BPPVJd2ou8m2VEuWb8TUUywwfDWpMlKPdfHVKbdP
rq/ADGT1N72W2coctZOlqkxJqhO/f9JMSOmy635OWezn9dHMfK9TCV7Xi17FRC66
T1jZ9hhzgrF4DaRcSA9f3N2jVM70fjIPHn25Xj7r/PAlwEHHyJmi5j8VDJRV7Rxn
yGfmrY/jFjYtTZIvLscVpZVGdxhk7U+QwnV/U5tZ15njIW8j3vlx5bDuID5ZAgMB
AAGjggEcMIIBGDAOBgNVHQ8BAf8EBAMCAQYwDwYDVR0TAQH/BAUwAwEB/zAdBgNV
HQ4EFgQU2cv2/dH3UmrGuUE/Yq6woZPjGxMwHwYDVR0jBBgwFoAUXi0ve0j7AvEq
ysi6xQk2DqSXGEQwRgYIKwYBBQUHAQEEOjA4MDYGCCsGAQUFBzAChipodHRwOi8v
dHNpMjAyNC5taG8uaWZnb2lhbm8uYnIvcm9vdC1jYS5jZXIwOwYDVR0fBDQwMjAw
oC6gLIYqaHR0cDovL3RzaTIwMjQubWhvLmlmZ29pYW5vLmJyL3Jvb3QtY2EuY3Js
MDAGA1UdIAQpMCcwCwYJKwYBBAEAAQcKMAsGCSsGAQQBAAEHCDALBgkrBgEEAQAB
CAIwDQYJKoZIhvcNAQELBQADggEBAGqYBwW0xQ+S80eQr5FdSWzfHebYpzDLzkIY
07X13Qn/eDGHNIhFDV7waRdcdKk8DBTEtr3bMgdFpJWoceNbtO2b48ErFKRFsH5Q
6AXoYmt2fEJLewPuCGw7VRSJVqG0Ha9JcxOlKYNhComMWHNA8KJUyd3zTrFLl6xp
/3w9W/8hbDw/FHhKoquT2ag7yusgCPKMkYLMEaOjKL9XcAO8S29OMtcUsWVG5k8j
XeSqeAgTfnrBjmIS6vO3y44wyewEVe71JGHgmCuUerooLtiRm6dsen+XX7iqm05R
wvHG15jS4puAEHaRsb2/rxruXQ+3Ee97AoGN/oAtNg4g8SF1nbo=
-----END CERTIFICATE-----
Certificate:
    Data:
        Version: 3 (0x2)
        Serial Number:
            6d:ab:b5:e5:35:8b:18:62:d0:02:eb:41:c2:e0:ca:7e:ca:6c:3e:ed
        Signature Algorithm: sha256WithRSAEncryption
        Issuer: C=BR, O=TSI202402, OU=TSI202402 - CA, CN=TSI202402 - CA
        Validity
            Not Before: Nov 12 21:00:24 2024 GMT
            Not After : Nov 12 21:00:24 2044 GMT
        Subject: C=BR, O=TSI202402, OU=TSI202402 - CA, CN=TSI202402 - CA
        Subject Public Key Info:
            Public Key Algorithm: rsaEncryption
                Public-Key: (2048 bit)
                Modulus:
                    00:a8:44:79:ca:b3:12:dc:bc:f8:7b:90:71:cc:3b:
                    49:b7:d2:06:08:43:19:6f:5a:b3:4a:63:9f:cd:c5:
                    f3:a7:cd:51:0d:e7:cc:a6:ce:49:26:97:40:65:91:
                    b0:e5:f8:8f:22:0c:33:5d:5a:f6:79:de:c3:38:93:
                    36:66:f8:88:41:92:86:f0:40:a6:93:2d:d8:24:db:
                    17:c4:19:c8:49:dc:2f:3e:eb:81:84:6c:76:be:c5:
                    87:76:d7:4f:38:30:f7:74:fc:68:c0:01:55:35:f7:
                    70:32:39:73:19:99:22:92:9f:78:da:de:cb:07:cb:
                    81:dd:60:04:fe:4f:db:a0:7e:a2:ed:0a:ef:cd:ee:
                    dc:44:18:aa:ee:52:dd:44:c3:4f:be:be:68:14:13:
                    f6:ba:25:2d:dd:fd:88:6f:7b:2c:ee:bd:ad:26:3d:
                    44:5a:74:0a:72:35:40:06:30:b8:d0:8f:3d:08:24:
                    fc:cb:2d:63:a3:c6:08:67:07:c7:c6:24:04:69:95:
                    3f:78:2a:09:4b:3c:ea:b5:38:03:96:e8:7a:1a:22:
                    e8:9c:42:fe:a2:10:52:55:df:80:3e:58:ef:98:21:
                    c4:0a:55:bb:3f:34:ab:e6:27:50:48:6e:ae:f4:d0:
                    28:4d:bb:6a:e6:ff:e5:45:0d:a1:51:e9:02:a1:0e:
                    11:57
                Exponent: 65537 (0x10001)
        X509v3 extensions:
            X509v3 Key Usage: critical
                Certificate Sign, CRL Sign
            X509v3 Basic Constraints: critical
                CA:TRUE
            X509v3 Subject Key Identifier: 
                5E:2D:2F:7B:48:FB:02:F1:2A:CA:C8:BA:C5:09:36:0E:A4:97:18:44
            X509v3 Authority Key Identifier: 
                5E:2D:2F:7B:48:FB:02:F1:2A:CA:C8:BA:C5:09:36:0E:A4:97:18:44
    Signature Algorithm: sha256WithRSAEncryption
    Signature Value:
        17:2b:0a:a9:73:ca:0f:68:22:68:cf:48:30:38:1c:64:50:5e:
        1c:fa:25:30:77:82:8f:24:6c:34:24:4e:d7:8f:ea:e4:32:b4:
        77:4b:3d:6e:71:af:f8:b0:24:1e:87:c3:de:62:5f:7f:8f:1e:
        9e:e7:a1:26:fe:f2:0f:e5:3e:a2:68:57:82:72:4e:69:d8:09:
        4c:15:22:b4:eb:82:ce:e2:7d:63:37:cd:fc:d8:1f:6e:96:89:
        8b:fe:3b:5d:ea:19:72:7f:99:5d:3e:ea:d5:30:39:58:b6:9f:
        de:cc:22:03:9b:34:76:f4:66:2e:f7:aa:da:28:0e:2a:4f:ba:
        3a:e8:61:b0:f8:c8:eb:be:24:d3:89:7a:40:c5:9a:71:5a:db:
        20:5c:ef:e6:1c:cd:39:f0:08:0a:6e:d0:54:9e:49:7a:55:16:
        8f:66:39:d1:db:93:a1:d8:72:db:af:3b:08:a8:35:80:60:82:
        3d:12:0f:4c:da:d1:1f:f4:19:20:44:ba:41:90:e3:db:74:a5:
        63:87:a8:51:2b:f5:e5:a8:8e:93:06:c5:a3:5c:2b:7f:0a:ef:
        fd:c8:58:96:df:1d:4b:f6:0e:47:d1:27:e2:08:dd:69:00:1f:
        da:91:39:22:9f:4f:35:ad:8a:f2:c2:5b:bb:fa:e1:3c:2a:df:
        c3:fe:15:d3
-----BEGIN CERTIFICATE-----
MIIDlzCCAn+gAwIBAgIUbau15TWLGGLQAutBwuDKfspsPu0wDQYJKoZIhvcNAQEL
BQAwUzELMAkGA1UEBhMCQlIxEjAQBgNVBAoMCVRTSTIwMjQwMjEXMBUGA1UECwwO
VFNJMjAyNDAyIC0gQ0ExFzAVBgNVBAMMDlRTSTIwMjQwMiAtIENBMB4XDTI0MTEx
MjIxMDAyNFoXDTQ0MTExMjIxMDAyNFowUzELMAkGA1UEBhMCQlIxEjAQBgNVBAoM
CVRTSTIwMjQwMjEXMBUGA1UECwwOVFNJMjAyNDAyIC0gQ0ExFzAVBgNVBAMMDlRT
STIwMjQwMiAtIENBMIIBIjANBgkqhkiG9w0BAQEFAAOCAQ8AMIIBCgKCAQEAqER5
yrMS3Lz4e5BxzDtJt9IGCEMZb1qzSmOfzcXzp81RDefMps5JJpdAZZGw5fiPIgwz
XVr2ed7DOJM2ZviIQZKG8ECmky3YJNsXxBnISdwvPuuBhGx2vsWHdtdPODD3dPxo
wAFVNfdwMjlzGZkikp942t7LB8uB3WAE/k/boH6i7Qrvze7cRBiq7lLdRMNPvr5o
FBP2uiUt3f2Ib3ss7r2tJj1EWnQKcjVABjC40I89CCT8yy1jo8YIZwfHxiQEaZU/
eCoJSzzqtTgDluh6GiLonEL+ohBSVd+APljvmCHEClW7PzSr5idQSG6u9NAoTbtq
5v/lRQ2hUekCoQ4RVwIDAQABo2MwYTAOBgNVHQ8BAf8EBAMCAQYwDwYDVR0TAQH/
BAUwAwEB/zAdBgNVHQ4EFgQUXi0ve0j7AvEqysi6xQk2DqSXGEQwHwYDVR0jBBgw
FoAUXi0ve0j7AvEqysi6xQk2DqSXGEQwDQYJKoZIhvcNAQELBQADggEBABcrCqlz
yg9oImjPSDA4HGRQXhz6JTB3go8kbDQkTteP6uQytHdLPW5xr/iwJB6Hw95iX3+P
Hp7noSb+8g/lPqJoV4JyTmnYCUwVIrTrgs7ifWM3zfzYH26WiYv+O13qGXJ/mV0+
6tUwOVi2n97MIgObNHb0Zi73qtooDipPujroYbD4yOu+JNOJekDFmnFa2yBc7+Yc
zTnwCApu0FSeSXpVFo9mOdHbk6HYctuvOwioNYBggj0SD0za0R/0GSBEukGQ49t0
pWOHqFEr9eWojpMGxaNcK38K7/3IWJbfHUv2DkfRJ+II3WkAH9qROSKfTzWtivLC
W7v64Twq38P+FdM=
-----END CERTIFICATE-----
