Certificate:
    Data:
        Version: 3 (0x2)
        Serial Number:
            27:8f:2c:50:fe:09:61:09:d2:80:86:ab:3d:2c:ab:7b:f9:31:50:82
        Signature Algorithm: sha256WithRSAEncryption
        Issuer: C=BR, O=TSI202402, OU=TSI202402 CA COMPONENT, CN=TSI202402 CA COMPONENT
        Validity
            Not Before: Feb  8 16:43:37 2025 GMT
            Not After : Feb  8 16:43:37 2026 GMT
        Subject: C=BR, ST=GO, L=MORRINHOS, O=TSI202402, OU=TSI202402 CA COMPONENT, CN=Samuel Toledo
        Subject Public Key Info:
            Public Key Algorithm: rsaEncryption
                Public-Key: (2048 bit)
                Modulus:
                    00:e5:be:28:3b:89:bb:8f:ee:ef:2a:56:b1:53:18:
                    13:8b:1a:e6:38:49:1d:34:b2:6f:59:0f:51:69:e1:
                    07:11:b2:10:90:1c:a7:32:eb:cd:2e:f7:28:74:85:
                    38:b7:af:33:f7:1e:a5:58:ff:97:d6:25:cc:8a:a0:
                    fd:06:93:05:9e:9c:cc:ce:05:20:96:03:61:67:95:
                    da:14:33:8a:a1:a4:3f:95:15:49:23:e9:1d:40:af:
                    6f:84:38:1c:68:2c:cc:55:55:a7:93:06:d4:11:7d:
                    27:61:c7:7c:72:f4:3c:6f:03:e9:7c:7d:44:86:1b:
                    0f:e9:ab:9f:b9:a6:e0:55:97:11:e7:50:b6:b9:f1:
                    dc:7f:4a:3b:1d:9f:8d:d7:a9:75:b7:e6:d8:c9:22:
                    ba:b6:d1:ff:3d:d4:3e:b9:f8:91:88:2d:ac:27:60:
                    11:05:71:fb:49:d9:81:d0:b1:11:ab:2f:41:ba:bd:
                    e0:98:f8:fa:b9:6c:2a:29:4d:1b:6f:73:11:8c:7c:
                    29:ff:00:cb:f5:1e:31:85:ce:fd:69:fa:68:c6:2f:
                    ba:f3:af:86:e8:fc:39:3f:9d:3c:87:e6:e2:8d:eb:
                    3d:f3:b0:cc:34:e9:b3:18:d1:c5:b4:55:82:94:de:
                    23:84:5e:f9:94:42:73:19:e6:70:2a:65:d3:31:be:
                    64:4b
                Exponent: 65537 (0x10001)
        X509v3 extensions:
            X509v3 Key Usage: critical
                Digital Signature, Key Encipherment
            X509v3 Basic Constraints: 
                CA:FALSE
            X509v3 Extended Key Usage: 
                TLS Web Server Authentication, TLS Web Client Authentication
            X509v3 Subject Key Identifier: 
                71:F8:6D:A6:4E:AF:86:81:50:4B:F6:C9:34:86:06:D2:48:62:82:C4
            X509v3 Authority Key Identifier: 
                73:BF:F5:F5:21:D4:62:89:CA:AB:84:86:58:42:B4:42:D9:BA:11:10
            Authority Information Access: 
                CA Issuers - URI:http://pki.blue.se/component-ca.cer
                OCSP - URI:http://component-ca.ocsp.blue.se
            X509v3 CRL Distribution Points: 
                Full Name:
                  URI:http://pki.blue.se/component-ca.crl
            X509v3 Certificate Policies: 
                Policy: Blue Medium Assurance
            X509v3 Subject Alternative Name: 
                DNS:samueltoledo.tsi2024.labinfra.ti-educar.com.br
    Signature Algorithm: sha256WithRSAEncryption
    Signature Value:
        95:2b:82:5d:7e:6a:4f:b8:6c:16:52:4d:0e:b6:3a:1c:b5:a3:
        da:6a:04:55:49:79:76:41:58:b0:b6:3b:f7:ae:92:61:20:6a:
        0c:12:65:27:72:3c:a1:3d:60:ab:35:5c:cd:44:cc:94:84:79:
        2b:45:b4:89:6b:3f:66:5b:1f:ca:be:5c:15:a9:19:1f:55:4d:
        49:98:c9:b4:a6:e9:70:66:bc:ee:d6:79:fe:d9:49:f2:bb:1a:
        9e:c2:bb:36:94:00:38:95:2b:5b:99:e4:5f:87:80:81:b0:dc:
        19:12:6b:5b:f8:51:f5:1e:ca:c1:fc:89:68:2a:c4:ac:04:a9:
        68:7a:09:81:8a:2f:25:dd:60:93:92:39:d8:27:07:d7:0b:ae:
        47:09:2a:13:01:c0:74:40:e5:f6:1a:57:11:27:6b:f3:75:83:
        b9:8e:66:32:99:cc:b1:fd:b5:69:2b:9f:f1:77:5d:44:96:fb:
        d1:37:38:b3:6e:bb:0e:c4:06:e2:b8:80:81:85:d1:62:43:98:
        0c:ab:f3:bf:bb:42:32:50:40:cc:18:e9:fd:9d:89:0b:3b:3b:
        e8:ce:dc:41:7b:cf:7a:d9:c5:06:26:71:4a:1a:a5:fa:7c:0c:
        ab:d8:fc:7a:2d:67:a4:92:a8:c5:fc:b0:29:e2:7e:11:e4:32:
        d6:31:9e:61
-----BEGIN CERTIFICATE-----
MIIE5DCCA8ygAwIBAgIUJ48sUP4JYQnSgIarPSyre/kxUIIwDQYJKoZIhvcNAQEL
BQAwYzELMAkGA1UEBhMCQlIxEjAQBgNVBAoMCVRTSTIwMjQwMjEfMB0GA1UECwwW
VFNJMjAyNDAyIENBIENPTVBPTkVOVDEfMB0GA1UEAwwWVFNJMjAyNDAyIENBIENP
TVBPTkVOVDAeFw0yNTAyMDgxNjQzMzdaFw0yNjAyMDgxNjQzMzdaMHsxCzAJBgNV
BAYTAkJSMQswCQYDVQQIDAJHTzESMBAGA1UEBwwJTU9SUklOSE9TMRIwEAYDVQQK
DAlUU0kyMDI0MDIxHzAdBgNVBAsMFlRTSTIwMjQwMiBDQSBDT01QT05FTlQxFjAU
BgNVBAMMDVNhbXVlbCBUb2xlZG8wggEiMA0GCSqGSIb3DQEBAQUAA4IBDwAwggEK
AoIBAQDlvig7ibuP7u8qVrFTGBOLGuY4SR00sm9ZD1Fp4QcRshCQHKcy680u9yh0
hTi3rzP3HqVY/5fWJcyKoP0GkwWenMzOBSCWA2FnldoUM4qhpD+VFUkj6R1Ar2+E
OBxoLMxVVaeTBtQRfSdhx3xy9DxvA+l8fUSGGw/pq5+5puBVlxHnULa58dx/Sjsd
n43XqXW35tjJIrq20f891D65+JGILawnYBEFcftJ2YHQsRGrL0G6veCY+Pq5bCop
TRtvcxGMfCn/AMv1HjGFzv1p+mjGL7rzr4bo/Dk/nTyH5uKN6z3zsMw06bMY0cW0
VYKU3iOEXvmUQnMZ5nAqZdMxvmRLAgMBAAGjggF2MIIBcjAOBgNVHQ8BAf8EBAMC
BaAwCQYDVR0TBAIwADAdBgNVHSUEFjAUBggrBgEFBQcDAQYIKwYBBQUHAwIwHQYD
VR0OBBYEFHH4baZOr4aBUEv2yTSGBtJIYoLEMB8GA1UdIwQYMBaAFHO/9fUh1GKJ
yquEhlhCtELZuhEQMG0GCCsGAQUFBwEBBGEwXzAvBggrBgEFBQcwAoYjaHR0cDov
L3BraS5ibHVlLnNlL2NvbXBvbmVudC1jYS5jZXIwLAYIKwYBBQUHMAGGIGh0dHA6
Ly9jb21wb25lbnQtY2Eub2NzcC5ibHVlLnNlMDQGA1UdHwQtMCswKaAnoCWGI2h0
dHA6Ly9wa2kuYmx1ZS5zZS9jb21wb25lbnQtY2EuY3JsMBYGA1UdIAQPMA0wCwYJ
KwYBBAEAAQcIMDkGA1UdEQQyMDCCLnNhbXVlbHRvbGVkby50c2kyMDI0LmxhYmlu
ZnJhLnRpLWVkdWNhci5jb20uYnIwDQYJKoZIhvcNAQELBQADggEBAJUrgl1+ak+4
bBZSTQ62Ohy1o9pqBFVJeXZBWLC2O/eukmEgagwSZSdyPKE9YKs1XM1EzJSEeStF
tIlrP2ZbH8q+XBWpGR9VTUmYybSm6XBmvO7Wef7ZSfK7Gp7CuzaUADiVK1uZ5F+H
gIGw3BkSa1v4UfUeysH8iWgqxKwEqWh6CYGKLyXdYJOSOdgnB9cLrkcJKhMBwHRA
5fYaVxEna/N1g7mOZjKZzLH9tWkrn/F3XUSW+9E3OLNuuw7EBuK4gIGF0WJDmAyr
87+7QjJQQMwY6f2diQs7O+jO3EF7z3rZxQYmcUoapfp8DKvY/HotZ6SSqMX8sCni
fhHkMtYxnmE=
-----END CERTIFICATE-----
Certificate:
    Data:
        Version: 3 (0x2)
        Serial Number:
            53:c5:56:43:dd:2f:a9:f7:4b:06:02:88:81:c8:7c:2e:4a:f2:f2:0a
        Signature Algorithm: sha256WithRSAEncryption
        Issuer: C=BR, O=TSI202402, OU=TSI202402 CA NETWORK, CN=TSI202402 CA NETWORK
        Validity
            Not Before: Feb  4 23:45:56 2025 GMT
            Not After : Feb  4 23:45:56 2035 GMT
        Subject: C=BR, O=TSI202402, OU=TSI202402 CA COMPONENT, CN=TSI202402 CA COMPONENT
        Subject Public Key Info:
            Public Key Algorithm: rsaEncryption
                Public-Key: (2048 bit)
                Modulus:
                    00:be:ea:47:d8:0d:bd:41:76:69:1e:ba:28:64:cb:
                    df:a4:78:46:0d:2e:29:7c:09:6b:c0:d1:8e:b1:20:
                    51:d0:26:e8:c5:43:3f:ee:0e:f2:9e:bb:94:99:52:
                    53:dd:b5:8a:4f:f4:c4:8c:49:11:8f:bc:15:7d:3d:
                    32:81:87:10:a7:77:59:b6:24:d4:de:cf:72:24:64:
                    4c:be:d7:3d:c2:4d:bb:d5:6f:8d:15:86:49:a6:06:
                    aa:56:28:50:84:7d:62:f0:b0:84:f1:f6:95:42:11:
                    1d:c4:b9:b0:64:e8:10:90:38:a5:9d:b5:68:84:72:
                    c3:4c:c5:71:b0:2b:da:6d:b5:d6:9d:c8:da:15:7a:
                    94:7d:9f:5a:28:90:3a:2e:0a:6a:0c:9a:15:08:cd:
                    86:3c:d9:07:03:d0:e6:09:78:40:19:8c:7f:a5:35:
                    b5:bd:58:aa:be:b4:80:b6:89:bf:34:f0:29:ea:09:
                    01:1f:e5:6f:c2:b3:d3:d5:7d:09:38:fd:26:1d:8b:
                    11:38:1a:e0:67:2f:07:b0:06:d6:ff:4d:4f:54:8f:
                    4f:86:6b:ed:1d:72:4d:85:ff:0a:e6:ba:69:77:1d:
                    61:0f:0c:5c:de:b8:56:94:5c:35:41:53:26:01:40:
                    a9:8e:7e:ed:89:94:ba:73:37:20:ae:c0:61:1d:86:
                    bc:99
                Exponent: 65537 (0x10001)
        X509v3 extensions:
            X509v3 Key Usage: critical
                Certificate Sign, CRL Sign
            X509v3 Basic Constraints: critical
                CA:TRUE, pathlen:0
            X509v3 Subject Key Identifier: 
                73:BF:F5:F5:21:D4:62:89:CA:AB:84:86:58:42:B4:42:D9:BA:11:10
            X509v3 Authority Key Identifier: 
                A9:55:E4:22:21:3D:9C:B6:9B:5E:CC:D8:33:C5:72:78:C1:D2:1C:29
            Authority Information Access: 
                CA Issuers - URI:http://pki.blue.se/network-ca.cer
            X509v3 CRL Distribution Points: 
                Full Name:
                  URI:http://pki.blue.se/network-ca.crl
            X509v3 Certificate Policies: 
                Policy: Blue Medium Assurance
                Policy: Blue Time Stamping
    Signature Algorithm: sha256WithRSAEncryption
    Signature Value:
        4e:80:91:b3:f8:65:77:8c:8b:5a:05:2d:f0:e5:b4:37:53:d4:
        03:3d:02:7a:25:e9:45:85:e1:22:cd:8e:0a:31:95:9b:12:5d:
        3c:ff:92:e0:d1:4e:78:57:e0:cb:36:c6:86:8a:42:1f:3b:ff:
        76:28:46:46:b9:ac:13:97:d0:98:df:57:42:ab:67:12:90:c3:
        6d:10:5f:a9:fb:6d:34:19:64:98:19:f9:ac:df:8b:73:d2:16:
        ef:b6:ee:c4:5d:3a:4c:bb:0e:35:58:20:07:25:63:e9:98:31:
        52:a9:6e:04:18:e7:fc:b4:e2:1c:06:3e:d6:25:a8:b5:02:f8:
        24:8e:b0:28:98:66:f8:b1:84:63:d7:60:ea:80:a4:ca:81:24:
        0a:f9:43:50:07:d6:9d:3a:84:38:c1:c8:1f:63:d9:ba:1b:34:
        5c:3e:d6:09:b9:c7:de:7e:bd:14:68:44:db:24:5e:65:20:68:
        94:09:13:46:33:59:8f:ad:8c:87:e4:1f:24:bd:a2:fb:08:92:
        d0:65:c9:9c:e0:5f:e5:c6:08:2a:b3:68:24:05:e4:8c:89:ce:
        39:d1:7b:40:78:ce:f3:91:0a:04:d6:29:06:de:51:c7:7a:60:
        f6:2b:4c:38:f9:0d:64:31:70:58:57:26:a3:e6:c2:af:fd:b0:
        55:e8:9d:9e
-----BEGIN CERTIFICATE-----
MIIEUDCCAzigAwIBAgIUU8VWQ90vqfdLBgKIgch8Lkry8gowDQYJKoZIhvcNAQEL
BQAwXzELMAkGA1UEBhMCQlIxEjAQBgNVBAoMCVRTSTIwMjQwMjEdMBsGA1UECwwU
VFNJMjAyNDAyIENBIE5FVFdPUksxHTAbBgNVBAMMFFRTSTIwMjQwMiBDQSBORVRX
T1JLMB4XDTI1MDIwNDIzNDU1NloXDTM1MDIwNDIzNDU1NlowYzELMAkGA1UEBhMC
QlIxEjAQBgNVBAoMCVRTSTIwMjQwMjEfMB0GA1UECwwWVFNJMjAyNDAyIENBIENP
TVBPTkVOVDEfMB0GA1UEAwwWVFNJMjAyNDAyIENBIENPTVBPTkVOVDCCASIwDQYJ
KoZIhvcNAQEBBQADggEPADCCAQoCggEBAL7qR9gNvUF2aR66KGTL36R4Rg0uKXwJ
a8DRjrEgUdAm6MVDP+4O8p67lJlSU921ik/0xIxJEY+8FX09MoGHEKd3WbYk1N7P
ciRkTL7XPcJNu9VvjRWGSaYGqlYoUIR9YvCwhPH2lUIRHcS5sGToEJA4pZ21aIRy
w0zFcbAr2m211p3I2hV6lH2fWiiQOi4KagyaFQjNhjzZBwPQ5gl4QBmMf6U1tb1Y
qr60gLaJvzTwKeoJAR/lb8Kz09V9CTj9Jh2LETga4GcvB7AG1v9NT1SPT4Zr7R1y
TYX/Cua6aXcdYQ8MXN64VpRcNUFTJgFAqY5+7YmUunM3IK7AYR2GvJkCAwEAAaOB
/zCB/DAOBgNVHQ8BAf8EBAMCAQYwEgYDVR0TAQH/BAgwBgEB/wIBADAdBgNVHQ4E
FgQUc7/19SHUYonKq4SGWEK0Qtm6ERAwHwYDVR0jBBgwFoAUqVXkIiE9nLabXszY
M8VyeMHSHCkwPQYIKwYBBQUHAQEEMTAvMC0GCCsGAQUFBzAChiFodHRwOi8vcGtp
LmJsdWUuc2UvbmV0d29yay1jYS5jZXIwMgYDVR0fBCswKTAnoCWgI4YhaHR0cDov
L3BraS5ibHVlLnNlL25ldHdvcmstY2EuY3JsMCMGA1UdIAQcMBowCwYJKwYBBAEA
AQcIMAsGCSsGAQQBAAEIAjANBgkqhkiG9w0BAQsFAAOCAQEAToCRs/hld4yLWgUt
8OW0N1PUAz0CeiXpRYXhIs2OCjGVmxJdPP+S4NFOeFfgyzbGhopCHzv/dihGRrms
E5fQmN9XQqtnEpDDbRBfqfttNBlkmBn5rN+Lc9IW77buxF06TLsONVggByVj6Zgx
UqluBBjn/LTiHAY+1iWotQL4JI6wKJhm+LGEY9dg6oCkyoEkCvlDUAfWnTqEOMHI
H2PZuhs0XD7WCbnH3n69FGhE2yReZSBolAkTRjNZj62Mh+QfJL2i+wiS0GXJnOBf
5cYIKrNoJAXkjInOOdF7QHjO85EKBNYpBt5Rx3pg9itMOPkNZDFwWFcmo+bCr/2w
Veidng==
-----END CERTIFICATE-----
Certificate:
    Data:
        Version: 3 (0x2)
        Serial Number:
            33:4d:ce:cd:83:49:28:a7:5d:c7:ed:85:cb:af:6f:2e:d8:eb:b2:d7
        Signature Algorithm: sha256WithRSAEncryption
        Issuer: C=BR, O=TSI202402, OU=TSI2024 - Certificadora de Servicos, CN=TSI Certificados - TLS CA
        Validity
            Not Before: Feb  4 23:01:56 2025 GMT
            Not After : Feb  4 23:01:56 2045 GMT
        Subject: C=BR, O=TSI202402, OU=TSI202402 CA NETWORK, CN=TSI202402 CA NETWORK
        Subject Public Key Info:
            Public Key Algorithm: rsaEncryption
                Public-Key: (2048 bit)
                Modulus:
                    00:d8:49:88:4d:cb:70:c5:b3:ab:29:e7:32:2b:ab:
                    04:40:ce:63:4a:8b:7b:fc:96:fd:96:44:5f:be:41:
                    c6:21:ff:94:a0:ed:99:26:33:a2:3d:49:fd:6b:98:
                    ac:78:c3:00:ec:ec:aa:bc:be:c0:e3:66:c3:14:6f:
                    1b:83:33:13:00:b1:9d:95:7c:ed:2c:c7:cd:1a:af:
                    e4:59:85:87:84:97:9f:e6:ad:7e:00:d0:e9:e6:17:
                    3c:e4:fa:87:94:61:34:cc:53:fa:ae:88:90:d3:5e:
                    b1:47:23:8e:33:6a:23:37:4b:6e:23:20:0b:28:0e:
                    d7:e0:0d:71:4f:f5:00:d2:5b:2a:81:bc:35:e3:8d:
                    5d:d3:ed:06:79:e5:cf:74:c0:81:e7:10:97:50:b0:
                    34:5c:13:c4:39:42:f1:3f:98:b6:4d:35:74:40:78:
                    17:bd:05:da:17:f7:d8:a5:e4:2a:a8:cc:87:04:d3:
                    c0:20:f0:1c:4c:42:10:43:47:12:5c:43:22:79:25:
                    61:ca:1f:4b:bc:e2:2b:fe:c9:c2:d2:45:ba:c4:ad:
                    4d:52:48:73:63:d2:c9:30:d3:c3:84:a7:f1:22:d2:
                    43:ba:86:50:0b:a9:9a:22:63:b0:65:50:04:53:bf:
                    9e:ef:19:c5:b1:76:07:18:e0:0c:84:53:29:67:6b:
                    52:bf
                Exponent: 65537 (0x10001)
        X509v3 extensions:
            X509v3 Key Usage: critical
                Certificate Sign, CRL Sign
            X509v3 Basic Constraints: critical
                CA:TRUE
            X509v3 Subject Key Identifier: 
                A9:55:E4:22:21:3D:9C:B6:9B:5E:CC:D8:33:C5:72:78:C1:D2:1C:29
            X509v3 Authority Key Identifier: 
                D9:CB:F6:FD:D1:F7:52:6A:C6:B9:41:3F:62:AE:B0:A1:93:E3:1B:13
            Authority Information Access: 
                CA Issuers - URI:http://pki.ts202402.mho.ifgoiano.edu.br/tls-ca.cer
            X509v3 CRL Distribution Points: 
                Full Name:
                  URI:http://pki.ts202402.mho.ifgoiano.edu.br/tls-ca.crl
    Signature Algorithm: sha256WithRSAEncryption
    Signature Value:
        86:c4:65:17:2d:96:26:67:16:4c:82:aa:2d:b0:54:b8:3b:7e:
        7d:20:5a:39:b8:c3:04:ba:aa:70:26:5f:f6:7d:12:81:de:24:
        26:22:9a:97:43:0e:2f:6b:a6:59:98:05:e2:c0:54:bd:0a:30:
        f1:0e:4c:f9:96:85:ea:22:13:c2:81:b4:e2:34:7e:db:2a:a8:
        a3:fc:51:08:dd:09:7b:5b:f6:a1:2c:c8:d1:7e:39:7c:b2:e3:
        71:a9:22:46:9c:83:25:32:10:02:43:a7:fd:f1:5d:36:e7:81:
        e4:de:84:c9:0a:68:1f:0c:f3:2f:1c:14:98:22:3e:3d:21:3f:
        47:60:12:0d:ea:4f:43:95:54:07:d5:14:14:b3:7d:31:6d:ea:
        76:de:18:0f:fb:63:ec:3b:91:28:3d:40:94:7f:b9:2a:b2:c9:
        f5:64:5a:55:11:53:6d:79:db:b3:f0:f2:70:1a:b8:be:93:aa:
        bc:71:44:8d:a4:1c:06:ec:58:82:c0:40:53:a8:0f:70:47:bb:
        c6:46:0c:d2:73:6e:26:a1:62:05:11:93:a1:49:76:ce:fa:4f:
        01:37:c5:41:4d:13:f2:c3:ee:9a:72:8a:5d:ba:8f:b8:3d:a8:
        52:55:87:5d:ac:e3:86:4a:17:0a:88:bd:83:eb:9d:6f:29:d5:
        d3:2f:ef:b2
-----BEGIN CERTIFICATE-----
MIIEWjCCA0KgAwIBAgIUM03OzYNJKKddx+2Fy69vLtjrstcwDQYJKoZIhvcNAQEL
BQAwczELMAkGA1UEBhMCQlIxEjAQBgNVBAoMCVRTSTIwMjQwMjEsMCoGA1UECwwj
VFNJMjAyNCAtIENlcnRpZmljYWRvcmEgZGUgU2Vydmljb3MxIjAgBgNVBAMMGVRT
SSBDZXJ0aWZpY2Fkb3MgLSBUTFMgQ0EwHhcNMjUwMjA0MjMwMTU2WhcNNDUwMjA0
MjMwMTU2WjBfMQswCQYDVQQGEwJCUjESMBAGA1UECgwJVFNJMjAyNDAyMR0wGwYD
VQQLDBRUU0kyMDI0MDIgQ0EgTkVUV09SSzEdMBsGA1UEAwwUVFNJMjAyNDAyIENB
IE5FVFdPUkswggEiMA0GCSqGSIb3DQEBAQUAA4IBDwAwggEKAoIBAQDYSYhNy3DF
s6sp5zIrqwRAzmNKi3v8lv2WRF++QcYh/5Sg7ZkmM6I9Sf1rmKx4wwDs7Kq8vsDj
ZsMUbxuDMxMAsZ2VfO0sx80ar+RZhYeEl5/mrX4A0OnmFzzk+oeUYTTMU/quiJDT
XrFHI44zaiM3S24jIAsoDtfgDXFP9QDSWyqBvDXjjV3T7QZ55c90wIHnEJdQsDRc
E8Q5QvE/mLZNNXRAeBe9BdoX99il5CqozIcE08Ag8BxMQhBDRxJcQyJ5JWHKH0u8
4iv+ycLSRbrErU1SSHNj0skw08OEp/Ei0kO6hlALqZoiY7BlUARTv57vGcWxdgcY
4AyEUylna1K/AgMBAAGjgfkwgfYwDgYDVR0PAQH/BAQDAgEGMA8GA1UdEwEB/wQF
MAMBAf8wHQYDVR0OBBYEFKlV5CIhPZy2m17M2DPFcnjB0hwpMB8GA1UdIwQYMBaA
FNnL9v3R91JqxrlBP2KusKGT4xsTME4GCCsGAQUFBwEBBEIwQDA+BggrBgEFBQcw
AoYyaHR0cDovL3BraS50czIwMjQwMi5taG8uaWZnb2lhbm8uZWR1LmJyL3Rscy1j
YS5jZXIwQwYDVR0fBDwwOjA4oDagNIYyaHR0cDovL3BraS50czIwMjQwMi5taG8u
aWZnb2lhbm8uZWR1LmJyL3Rscy1jYS5jcmwwDQYJKoZIhvcNAQELBQADggEBAIbE
ZRctliZnFkyCqi2wVLg7fn0gWjm4wwS6qnAmX/Z9EoHeJCYimpdDDi9rplmYBeLA
VL0KMPEOTPmWheoiE8KBtOI0ftsqqKP8UQjdCXtb9qEsyNF+OXyy43GpIkacgyUy
EAJDp/3xXTbngeTehMkKaB8M8y8cFJgiPj0hP0dgEg3qT0OVVAfVFBSzfTFt6nbe
GA/7Y+w7kSg9QJR/uSqyyfVkWlURU21527Pw8nAauL6TqrxxRI2kHAbsWILAQFOo
D3BHu8ZGDNJzbiahYgURk6FJds76TwE3xUFNE/LD7ppyil26j7g9qFJVh12s44ZK
FwqIvYPrnW8p1dMv77I=
-----END CERTIFICATE-----
Certificate:
    Data:
        Version: 3 (0x2)
        Serial Number:
            6e:f3:96:20:b1:c2:fd:4b:fd:42:a0:08:d2:2b:a8:dc:aa:c2:4e:ad
        Signature Algorithm: sha256WithRSAEncryption
        Issuer: C=BR, O=TSI202402, OU=TSI202402 - CA, CN=TSI202402 - CA
        Validity
            Not Before: Nov 12 21:23:39 2024 GMT
            Not After : Nov 12 21:23:39 2044 GMT
        Subject: C=BR, O=TSI202402, OU=TSI2024 - Certificadora de Servicos, CN=TSI Certificados - TLS CA
        Subject Public Key Info:
            Public Key Algorithm: rsaEncryption
                Public-Key: (2048 bit)
                Modulus:
                    00:df:2f:10:24:24:68:47:ad:c2:3c:be:77:47:86:
                    8a:46:d9:12:f3:ae:3c:6d:b6:e2:a7:92:2a:53:e6:
                    78:c6:c0:25:41:23:3c:04:d0:d1:3c:3a:26:fa:56:
                    fd:98:b2:ba:d8:40:40:c9:61:95:7a:cf:6d:57:ad:
                    56:91:b4:0c:b6:c2:40:63:2e:e3:7f:80:b7:70:db:
                    df:7f:38:78:d1:27:d0:9a:b7:8e:b6:04:f3:d5:25:
                    dd:a8:bb:c9:b6:54:4b:96:6f:c4:d4:53:2c:30:7c:
                    35:a9:32:52:8f:75:f1:d5:29:b7:4f:ae:af:c0:0c:
                    64:f5:37:bd:96:d9:ca:1c:b5:93:a5:aa:4c:49:aa:
                    13:bf:7f:d2:4c:48:e9:b2:eb:7e:4e:59:ec:e7:f5:
                    d1:cc:7c:af:53:09:5e:d7:8b:5e:c5:44:2e:ba:4f:
                    58:d9:f6:18:73:82:b1:78:0d:a4:5c:48:0f:5f:dc:
                    dd:a3:54:ce:f4:7e:32:0f:1e:7d:b9:5e:3e:eb:fc:
                    f0:25:c0:41:c7:c8:99:a2:e6:3f:15:0c:94:55:ed:
                    1c:67:c8:67:e6:ad:8f:e3:16:36:2d:4d:92:2f:2e:
                    c7:15:a5:95:46:77:18:64:ed:4f:90:c2:75:7f:53:
                    9b:59:d7:99:e3:21:6f:23:de:f9:71:e5:b0:ee:20:
                    3e:59
                Exponent: 65537 (0x10001)
        X509v3 extensions:
            X509v3 Key Usage: critical
                Certificate Sign, CRL Sign
            X509v3 Basic Constraints: critical
                CA:TRUE
            X509v3 Subject Key Identifier: 
                D9:CB:F6:FD:D1:F7:52:6A:C6:B9:41:3F:62:AE:B0:A1:93:E3:1B:13
            X509v3 Authority Key Identifier: 
                5E:2D:2F:7B:48:FB:02:F1:2A:CA:C8:BA:C5:09:36:0E:A4:97:18:44
            Authority Information Access: 
                CA Issuers - URI:http://tsi2024.mho.ifgoiano.br/root-ca.cer
            X509v3 CRL Distribution Points: 
                Full Name:
                  URI:http://tsi2024.mho.ifgoiano.br/root-ca.crl
            X509v3 Certificate Policies: 
                Policy: TSI Verificacao de Alta seguranca
                Policy: TSI verificacao de seguranca nivel Medio
                Policy: TSI registro de TS - Time Stamping
    Signature Algorithm: sha256WithRSAEncryption
    Signature Value:
        6a:98:07:05:b4:c5:0f:92:f3:47:90:af:91:5d:49:6c:df:1d:
        e6:d8:a7:30:cb:ce:42:18:d3:b5:f5:dd:09:ff:78:31:87:34:
        88:45:0d:5e:f0:69:17:5c:74:a9:3c:0c:14:c4:b6:bd:db:32:
        07:45:a4:95:a8:71:e3:5b:b4:ed:9b:e3:c1:2b:14:a4:45:b0:
        7e:50:e8:05:e8:62:6b:76:7c:42:4b:7b:03:ee:08:6c:3b:55:
        14:89:56:a1:b4:1d:af:49:73:13:a5:29:83:61:0a:89:8c:58:
        73:40:f0:a2:54:c9:dd:f3:4e:b1:4b:97:ac:69:ff:7c:3d:5b:
        ff:21:6c:3c:3f:14:78:4a:a2:ab:93:d9:a8:3b:ca:eb:20:08:
        f2:8c:91:82:cc:11:a3:a3:28:bf:57:70:03:bc:4b:6f:4e:32:
        d7:14:b1:65:46:e6:4f:23:5d:e4:aa:78:08:13:7e:7a:c1:8e:
        62:12:ea:f3:b7:cb:8e:30:c9:ec:04:55:ee:f5:24:61:e0:98:
        2b:94:7a:ba:28:2e:d8:91:9b:a7:6c:7a:7f:97:5f:b8:aa:9b:
        4e:51:c2:f1:c6:d7:98:d2:e2:9b:80:10:76:91:b1:bd:bf:af:
        1a:ee:5d:0f:b7:11:ef:7b:02:81:8d:fe:80:2d:36:0e:20:f1:
        21:75:9d:ba
-----BEGIN CERTIFICATE-----
MIIEcjCCA1qgAwIBAgIUbvOWILHC/Uv9QqAI0iuo3KrCTq0wDQYJKoZIhvcNAQEL
BQAwUzELMAkGA1UEBhMCQlIxEjAQBgNVBAoMCVRTSTIwMjQwMjEXMBUGA1UECwwO
VFNJMjAyNDAyIC0gQ0ExFzAVBgNVBAMMDlRTSTIwMjQwMiAtIENBMB4XDTI0MTEx
MjIxMjMzOVoXDTQ0MTExMjIxMjMzOVowczELMAkGA1UEBhMCQlIxEjAQBgNVBAoM
CVRTSTIwMjQwMjEsMCoGA1UECwwjVFNJMjAyNCAtIENlcnRpZmljYWRvcmEgZGUg
U2Vydmljb3MxIjAgBgNVBAMMGVRTSSBDZXJ0aWZpY2Fkb3MgLSBUTFMgQ0EwggEi
MA0GCSqGSIb3DQEBAQUAA4IBDwAwggEKAoIBAQDfLxAkJGhHrcI8vndHhopG2RLz
rjxttuKnkipT5njGwCVBIzwE0NE8Oib6Vv2YsrrYQEDJYZV6z21XrVaRtAy2wkBj
LuN/gLdw299/OHjRJ9Cat462BPPVJd2ou8m2VEuWb8TUUywwfDWpMlKPdfHVKbdP
rq/ADGT1N72W2coctZOlqkxJqhO/f9JMSOmy635OWezn9dHMfK9TCV7Xi17FRC66
T1jZ9hhzgrF4DaRcSA9f3N2jVM70fjIPHn25Xj7r/PAlwEHHyJmi5j8VDJRV7Rxn
yGfmrY/jFjYtTZIvLscVpZVGdxhk7U+QwnV/U5tZ15njIW8j3vlx5bDuID5ZAgMB
AAGjggEcMIIBGDAOBgNVHQ8BAf8EBAMCAQYwDwYDVR0TAQH/BAUwAwEB/zAdBgNV
HQ4EFgQU2cv2/dH3UmrGuUE/Yq6woZPjGxMwHwYDVR0jBBgwFoAUXi0ve0j7AvEq
ysi6xQk2DqSXGEQwRgYIKwYBBQUHAQEEOjA4MDYGCCsGAQUFBzAChipodHRwOi8v
dHNpMjAyNC5taG8uaWZnb2lhbm8uYnIvcm9vdC1jYS5jZXIwOwYDVR0fBDQwMjAw
oC6gLIYqaHR0cDovL3RzaTIwMjQubWhvLmlmZ29pYW5vLmJyL3Jvb3QtY2EuY3Js
MDAGA1UdIAQpMCcwCwYJKwYBBAEAAQcKMAsGCSsGAQQBAAEHCDALBgkrBgEEAQAB
CAIwDQYJKoZIhvcNAQELBQADggEBAGqYBwW0xQ+S80eQr5FdSWzfHebYpzDLzkIY
07X13Qn/eDGHNIhFDV7waRdcdKk8DBTEtr3bMgdFpJWoceNbtO2b48ErFKRFsH5Q
6AXoYmt2fEJLewPuCGw7VRSJVqG0Ha9JcxOlKYNhComMWHNA8KJUyd3zTrFLl6xp
/3w9W/8hbDw/FHhKoquT2ag7yusgCPKMkYLMEaOjKL9XcAO8S29OMtcUsWVG5k8j
XeSqeAgTfnrBjmIS6vO3y44wyewEVe71JGHgmCuUerooLtiRm6dsen+XX7iqm05R
wvHG15jS4puAEHaRsb2/rxruXQ+3Ee97AoGN/oAtNg4g8SF1nbo=
-----END CERTIFICATE-----
Certificate:
    Data:
        Version: 3 (0x2)
        Serial Number:
            6d:ab:b5:e5:35:8b:18:62:d0:02:eb:41:c2:e0:ca:7e:ca:6c:3e:ed
        Signature Algorithm: sha256WithRSAEncryption
        Issuer: C=BR, O=TSI202402, OU=TSI202402 - CA, CN=TSI202402 - CA
        Validity
            Not Before: Nov 12 21:00:24 2024 GMT
            Not After : Nov 12 21:00:24 2044 GMT
        Subject: C=BR, O=TSI202402, OU=TSI202402 - CA, CN=TSI202402 - CA
        Subject Public Key Info:
            Public Key Algorithm: rsaEncryption
                Public-Key: (2048 bit)
                Modulus:
                    00:a8:44:79:ca:b3:12:dc:bc:f8:7b:90:71:cc:3b:
                    49:b7:d2:06:08:43:19:6f:5a:b3:4a:63:9f:cd:c5:
                    f3:a7:cd:51:0d:e7:cc:a6:ce:49:26:97:40:65:91:
                    b0:e5:f8:8f:22:0c:33:5d:5a:f6:79:de:c3:38:93:
                    36:66:f8:88:41:92:86:f0:40:a6:93:2d:d8:24:db:
                    17:c4:19:c8:49:dc:2f:3e:eb:81:84:6c:76:be:c5:
                    87:76:d7:4f:38:30:f7:74:fc:68:c0:01:55:35:f7:
                    70:32:39:73:19:99:22:92:9f:78:da:de:cb:07:cb:
                    81:dd:60:04:fe:4f:db:a0:7e:a2:ed:0a:ef:cd:ee:
                    dc:44:18:aa:ee:52:dd:44:c3:4f:be:be:68:14:13:
                    f6:ba:25:2d:dd:fd:88:6f:7b:2c:ee:bd:ad:26:3d:
                    44:5a:74:0a:72:35:40:06:30:b8:d0:8f:3d:08:24:
                    fc:cb:2d:63:a3:c6:08:67:07:c7:c6:24:04:69:95:
                    3f:78:2a:09:4b:3c:ea:b5:38:03:96:e8:7a:1a:22:
                    e8:9c:42:fe:a2:10:52:55:df:80:3e:58:ef:98:21:
                    c4:0a:55:bb:3f:34:ab:e6:27:50:48:6e:ae:f4:d0:
                    28:4d:bb:6a:e6:ff:e5:45:0d:a1:51:e9:02:a1:0e:
                    11:57
                Exponent: 65537 (0x10001)
        X509v3 extensions:
            X509v3 Key Usage: critical
                Certificate Sign, CRL Sign
            X509v3 Basic Constraints: critical
                CA:TRUE
            X509v3 Subject Key Identifier: 
                5E:2D:2F:7B:48:FB:02:F1:2A:CA:C8:BA:C5:09:36:0E:A4:97:18:44
            X509v3 Authority Key Identifier: 
                5E:2D:2F:7B:48:FB:02:F1:2A:CA:C8:BA:C5:09:36:0E:A4:97:18:44
    Signature Algorithm: sha256WithRSAEncryption
    Signature Value:
        17:2b:0a:a9:73:ca:0f:68:22:68:cf:48:30:38:1c:64:50:5e:
        1c:fa:25:30:77:82:8f:24:6c:34:24:4e:d7:8f:ea:e4:32:b4:
        77:4b:3d:6e:71:af:f8:b0:24:1e:87:c3:de:62:5f:7f:8f:1e:
        9e:e7:a1:26:fe:f2:0f:e5:3e:a2:68:57:82:72:4e:69:d8:09:
        4c:15:22:b4:eb:82:ce:e2:7d:63:37:cd:fc:d8:1f:6e:96:89:
        8b:fe:3b:5d:ea:19:72:7f:99:5d:3e:ea:d5:30:39:58:b6:9f:
        de:cc:22:03:9b:34:76:f4:66:2e:f7:aa:da:28:0e:2a:4f:ba:
        3a:e8:61:b0:f8:c8:eb:be:24:d3:89:7a:40:c5:9a:71:5a:db:
        20:5c:ef:e6:1c:cd:39:f0:08:0a:6e:d0:54:9e:49:7a:55:16:
        8f:66:39:d1:db:93:a1:d8:72:db:af:3b:08:a8:35:80:60:82:
        3d:12:0f:4c:da:d1:1f:f4:19:20:44:ba:41:90:e3:db:74:a5:
        63:87:a8:51:2b:f5:e5:a8:8e:93:06:c5:a3:5c:2b:7f:0a:ef:
        fd:c8:58:96:df:1d:4b:f6:0e:47:d1:27:e2:08:dd:69:00:1f:
        da:91:39:22:9f:4f:35:ad:8a:f2:c2:5b:bb:fa:e1:3c:2a:df:
        c3:fe:15:d3
-----BEGIN CERTIFICATE-----
MIIDlzCCAn+gAwIBAgIUbau15TWLGGLQAutBwuDKfspsPu0wDQYJKoZIhvcNAQEL
BQAwUzELMAkGA1UEBhMCQlIxEjAQBgNVBAoMCVRTSTIwMjQwMjEXMBUGA1UECwwO
VFNJMjAyNDAyIC0gQ0ExFzAVBgNVBAMMDlRTSTIwMjQwMiAtIENBMB4XDTI0MTEx
MjIxMDAyNFoXDTQ0MTExMjIxMDAyNFowUzELMAkGA1UEBhMCQlIxEjAQBgNVBAoM
CVRTSTIwMjQwMjEXMBUGA1UECwwOVFNJMjAyNDAyIC0gQ0ExFzAVBgNVBAMMDlRT
STIwMjQwMiAtIENBMIIBIjANBgkqhkiG9w0BAQEFAAOCAQ8AMIIBCgKCAQEAqER5
yrMS3Lz4e5BxzDtJt9IGCEMZb1qzSmOfzcXzp81RDefMps5JJpdAZZGw5fiPIgwz
XVr2ed7DOJM2ZviIQZKG8ECmky3YJNsXxBnISdwvPuuBhGx2vsWHdtdPODD3dPxo
wAFVNfdwMjlzGZkikp942t7LB8uB3WAE/k/boH6i7Qrvze7cRBiq7lLdRMNPvr5o
FBP2uiUt3f2Ib3ss7r2tJj1EWnQKcjVABjC40I89CCT8yy1jo8YIZwfHxiQEaZU/
eCoJSzzqtTgDluh6GiLonEL+ohBSVd+APljvmCHEClW7PzSr5idQSG6u9NAoTbtq
5v/lRQ2hUekCoQ4RVwIDAQABo2MwYTAOBgNVHQ8BAf8EBAMCAQYwDwYDVR0TAQH/
BAUwAwEB/zAdBgNVHQ4EFgQUXi0ve0j7AvEqysi6xQk2DqSXGEQwHwYDVR0jBBgw
FoAUXi0ve0j7AvEqysi6xQk2DqSXGEQwDQYJKoZIhvcNAQELBQADggEBABcrCqlz
yg9oImjPSDA4HGRQXhz6JTB3go8kbDQkTteP6uQytHdLPW5xr/iwJB6Hw95iX3+P
Hp7noSb+8g/lPqJoV4JyTmnYCUwVIrTrgs7ifWM3zfzYH26WiYv+O13qGXJ/mV0+
6tUwOVi2n97MIgObNHb0Zi73qtooDipPujroYbD4yOu+JNOJekDFmnFa2yBc7+Yc
zTnwCApu0FSeSXpVFo9mOdHbk6HYctuvOwioNYBggj0SD0za0R/0GSBEukGQ49t0
pWOHqFEr9eWojpMGxaNcK38K7/3IWJbfHUv2DkfRJ+II3WkAH9qROSKfTzWtivLC
W7v64Twq38P+FdM=
-----END CERTIFICATE-----
