Certificate:
    Data:
        Version: 3 (0x2)
        Serial Number:
            48:0c:01:11:32:d1:60:94:c5:c2:bf:7a:ae:ee:3f:b0:c6:d9:8d:cd
        Signature Algorithm: sha256WithRSAEncryption
        Issuer: C=BR, O=TSI202402, OU=TSI202402 CA NETWORK, CN=TSI202402 CA NETWORK
        Validity
            Not Before: Feb  4 23:41:03 2025 GMT
            Not After : Feb  4 23:41:03 2035 GMT
        Subject: C=BR, O=TSI202402, OU=TSI202402 CA IDENTITY, CN=TSI202402 CA IDENTITY
        Subject Public Key Info:
            Public Key Algorithm: rsaEncryption
                Public-Key: (2048 bit)
                Modulus:
                    00:a1:81:1a:e9:b3:03:a0:4d:eb:54:65:e5:e2:fb:
                    a8:21:7c:d0:77:a6:3c:3e:15:9e:b0:66:40:01:8b:
                    d0:0b:11:1d:7c:7b:fe:cf:db:a0:4a:cd:d8:99:89:
                    32:42:b0:aa:e4:e4:04:8f:d3:24:44:53:15:c5:8f:
                    ee:a3:9a:db:3b:26:d3:16:5a:8f:c1:e1:f3:f1:0c:
                    f3:06:60:5c:1a:fa:f4:ec:8f:26:9b:bd:04:6b:8f:
                    85:4d:d5:fd:bf:0e:96:1a:f6:8b:ee:db:30:f8:3e:
                    5f:a1:9f:1e:1e:5b:00:02:cb:61:5f:74:a9:65:8e:
                    0f:08:d7:08:60:6f:7b:9e:0b:dd:64:36:b5:e9:ee:
                    4e:29:27:a4:a5:1d:a8:7f:5c:c5:c1:84:86:6d:36:
                    69:0f:c3:33:02:7b:40:1e:6b:c8:9e:8d:f4:35:ce:
                    f3:a3:9f:73:3f:ce:13:11:2a:cc:f9:11:52:4e:ff:
                    a3:d3:0d:58:bc:03:e9:b2:1e:18:82:eb:f4:8c:f9:
                    2d:e9:23:52:72:72:d3:05:89:f9:e1:06:0d:19:99:
                    1c:fc:87:4a:b9:0b:fd:08:9d:62:23:2f:18:e8:00:
                    6a:aa:62:50:a2:16:d3:60:be:21:d1:a0:93:4f:0d:
                    b7:a2:19:47:d6:fb:5e:78:89:6c:64:91:85:62:6c:
                    a3:bb
                Exponent: 65537 (0x10001)
        X509v3 extensions:
            X509v3 Key Usage: critical
                Certificate Sign, CRL Sign
            X509v3 Basic Constraints: critical
                CA:TRUE, pathlen:0
            X509v3 Subject Key Identifier: 
                A5:3B:D8:F7:E5:C6:4A:B4:02:39:5C:A3:3A:3D:31:CE:F7:59:AA:9E
            X509v3 Authority Key Identifier: 
                A9:55:E4:22:21:3D:9C:B6:9B:5E:CC:D8:33:C5:72:78:C1:D2:1C:29
            Authority Information Access: 
                CA Issuers - URI:http://pki.blue.se/network-ca.cer
            X509v3 CRL Distribution Points: 
                Full Name:
                  URI:http://pki.blue.se/network-ca.crl
            X509v3 Certificate Policies: 
                Policy: Blue High Assurance
    Signature Algorithm: sha256WithRSAEncryption
    Signature Value:
        5d:82:7a:83:75:ed:c9:ce:cb:69:ba:65:82:35:b1:0a:52:67:
        de:0d:d8:bc:2b:41:88:37:97:d9:0e:00:9c:c7:a2:66:d9:b6:
        0b:b3:54:e4:ba:6a:8b:8f:3b:3e:06:3a:ba:a4:60:23:6b:ee:
        f2:28:91:69:f6:fa:a2:b8:1d:6d:8b:8f:1f:0f:3c:44:c6:6d:
        91:8b:91:b6:ab:b0:f0:89:34:f6:06:73:1b:6a:71:53:b4:a8:
        98:71:b5:6c:e2:69:b0:7e:5f:2a:78:56:de:70:56:71:10:91:
        a9:d8:91:2e:f4:c3:5f:e8:59:4f:69:8f:1e:f6:95:e3:ed:e4:
        fe:ef:43:d7:17:8a:ee:ac:e6:36:24:a3:d2:2a:02:9f:36:22:
        04:72:6f:c9:26:c6:90:ac:cf:6f:9a:f8:b3:ec:f1:a0:91:52:
        bf:be:2e:4c:4a:a5:4e:23:7f:a7:ff:ac:68:7d:c9:6e:20:63:
        77:2c:bd:41:68:12:cb:4e:b4:9b:6b:7e:83:39:b3:b1:ae:ae:
        c9:6a:6a:c8:d6:40:7a:be:2a:3e:32:1e:c8:8a:7b:85:d1:9a:
        9d:01:8e:e7:2f:93:43:3e:64:1e:f0:15:f4:9d:d1:a8:78:2b:
        ac:29:2d:ec:a7:21:5d:58:ca:25:94:e6:f4:89:53:1a:f3:2b:
        59:9f:9f:ed
-----BEGIN CERTIFICATE-----
MIIEQTCCAymgAwIBAgIUSAwBETLRYJTFwr96ru4/sMbZjc0wDQYJKoZIhvcNAQEL
BQAwXzELMAkGA1UEBhMCQlIxEjAQBgNVBAoMCVRTSTIwMjQwMjEdMBsGA1UECwwU
VFNJMjAyNDAyIENBIE5FVFdPUksxHTAbBgNVBAMMFFRTSTIwMjQwMiBDQSBORVRX
T1JLMB4XDTI1MDIwNDIzNDEwM1oXDTM1MDIwNDIzNDEwM1owYTELMAkGA1UEBhMC
QlIxEjAQBgNVBAoMCVRTSTIwMjQwMjEeMBwGA1UECwwVVFNJMjAyNDAyIENBIElE
RU5USVRZMR4wHAYDVQQDDBVUU0kyMDI0MDIgQ0EgSURFTlRJVFkwggEiMA0GCSqG
SIb3DQEBAQUAA4IBDwAwggEKAoIBAQChgRrpswOgTetUZeXi+6ghfNB3pjw+FZ6w
ZkABi9ALER18e/7P26BKzdiZiTJCsKrk5ASP0yREUxXFj+6jmts7JtMWWo/B4fPx
DPMGYFwa+vTsjyabvQRrj4VN1f2/DpYa9ovu2zD4Pl+hnx4eWwACy2FfdKlljg8I
1whgb3ueC91kNrXp7k4pJ6SlHah/XMXBhIZtNmkPwzMCe0Aea8iejfQ1zvOjn3M/
zhMRKsz5EVJO/6PTDVi8A+myHhiC6/SM+S3pI1JyctMFifnhBg0ZmRz8h0q5C/0I
nWIjLxjoAGqqYlCiFtNgviHRoJNPDbeiGUfW+154iWxkkYVibKO7AgMBAAGjgfIw
ge8wDgYDVR0PAQH/BAQDAgEGMBIGA1UdEwEB/wQIMAYBAf8CAQAwHQYDVR0OBBYE
FKU72Pflxkq0Ajlcozo9Mc73WaqeMB8GA1UdIwQYMBaAFKlV5CIhPZy2m17M2DPF
cnjB0hwpMD0GCCsGAQUFBwEBBDEwLzAtBggrBgEFBQcwAoYhaHR0cDovL3BraS5i
bHVlLnNlL25ldHdvcmstY2EuY2VyMDIGA1UdHwQrMCkwJ6AloCOGIWh0dHA6Ly9w
a2kuYmx1ZS5zZS9uZXR3b3JrLWNhLmNybDAWBgNVHSAEDzANMAsGCSsGAQQBAAEH
CjANBgkqhkiG9w0BAQsFAAOCAQEAXYJ6g3Xtyc7LabplgjWxClJn3g3YvCtBiDeX
2Q4AnMeiZtm2C7NU5Lpqi487PgY6uqRgI2vu8iiRafb6orgdbYuPHw88RMZtkYuR
tquw8Ik09gZzG2pxU7SomHG1bOJpsH5fKnhW3nBWcRCRqdiRLvTDX+hZT2mPHvaV
4+3k/u9D1xeK7qzmNiSj0ioCnzYiBHJvySbGkKzPb5r4s+zxoJFSv74uTEqlTiN/
p/+saH3JbiBjdyy9QWgSy060m2t+gzmzsa6uyWpqyNZAer4qPjIeyIp7hdGanQGO
5y+TQz5kHvAV9J3RqHgrrCkt7KchXVjKJZTm9IlTGvMrWZ+f7Q==
-----END CERTIFICATE-----
