Certificate:
    Data:
        Version: 3 (0x2)
        Serial Number:
            27:8f:2c:50:fe:09:61:09:d2:80:86:ab:3d:2c:ab:7b:f9:31:50:82
        Signature Algorithm: sha256WithRSAEncryption
        Issuer: C=BR, O=TSI202402, OU=TSI202402 CA COMPONENT, CN=TSI202402 CA COMPONENT
        Validity
            Not Before: Feb  8 16:43:37 2025 GMT
            Not After : Feb  8 16:43:37 2026 GMT
        Subject: C=BR, ST=GO, L=MORRINHOS, O=TSI202402, OU=TSI202402 CA COMPONENT, CN=Samuel Toledo
        Subject Public Key Info:
            Public Key Algorithm: rsaEncryption
                Public-Key: (2048 bit)
                Modulus:
                    00:e5:be:28:3b:89:bb:8f:ee:ef:2a:56:b1:53:18:
                    13:8b:1a:e6:38:49:1d:34:b2:6f:59:0f:51:69:e1:
                    07:11:b2:10:90:1c:a7:32:eb:cd:2e:f7:28:74:85:
                    38:b7:af:33:f7:1e:a5:58:ff:97:d6:25:cc:8a:a0:
                    fd:06:93:05:9e:9c:cc:ce:05:20:96:03:61:67:95:
                    da:14:33:8a:a1:a4:3f:95:15:49:23:e9:1d:40:af:
                    6f:84:38:1c:68:2c:cc:55:55:a7:93:06:d4:11:7d:
                    27:61:c7:7c:72:f4:3c:6f:03:e9:7c:7d:44:86:1b:
                    0f:e9:ab:9f:b9:a6:e0:55:97:11:e7:50:b6:b9:f1:
                    dc:7f:4a:3b:1d:9f:8d:d7:a9:75:b7:e6:d8:c9:22:
                    ba:b6:d1:ff:3d:d4:3e:b9:f8:91:88:2d:ac:27:60:
                    11:05:71:fb:49:d9:81:d0:b1:11:ab:2f:41:ba:bd:
                    e0:98:f8:fa:b9:6c:2a:29:4d:1b:6f:73:11:8c:7c:
                    29:ff:00:cb:f5:1e:31:85:ce:fd:69:fa:68:c6:2f:
                    ba:f3:af:86:e8:fc:39:3f:9d:3c:87:e6:e2:8d:eb:
                    3d:f3:b0:cc:34:e9:b3:18:d1:c5:b4:55:82:94:de:
                    23:84:5e:f9:94:42:73:19:e6:70:2a:65:d3:31:be:
                    64:4b
                Exponent: 65537 (0x10001)
        X509v3 extensions:
            X509v3 Key Usage: critical
                Digital Signature, Key Encipherment
            X509v3 Basic Constraints: 
                CA:FALSE
            X509v3 Extended Key Usage: 
                TLS Web Server Authentication, TLS Web Client Authentication
            X509v3 Subject Key Identifier: 
                71:F8:6D:A6:4E:AF:86:81:50:4B:F6:C9:34:86:06:D2:48:62:82:C4
            X509v3 Authority Key Identifier: 
                73:BF:F5:F5:21:D4:62:89:CA:AB:84:86:58:42:B4:42:D9:BA:11:10
            Authority Information Access: 
                CA Issuers - URI:http://pki.blue.se/component-ca.cer
                OCSP - URI:http://component-ca.ocsp.blue.se
            X509v3 CRL Distribution Points: 
                Full Name:
                  URI:http://pki.blue.se/component-ca.crl
            X509v3 Certificate Policies: 
                Policy: Blue Medium Assurance
            X509v3 Subject Alternative Name: 
                DNS:samueltoledo.tsi2024.labinfra.ti-educar.com.br
    Signature Algorithm: sha256WithRSAEncryption
    Signature Value:
        95:2b:82:5d:7e:6a:4f:b8:6c:16:52:4d:0e:b6:3a:1c:b5:a3:
        da:6a:04:55:49:79:76:41:58:b0:b6:3b:f7:ae:92:61:20:6a:
        0c:12:65:27:72:3c:a1:3d:60:ab:35:5c:cd:44:cc:94:84:79:
        2b:45:b4:89:6b:3f:66:5b:1f:ca:be:5c:15:a9:19:1f:55:4d:
        49:98:c9:b4:a6:e9:70:66:bc:ee:d6:79:fe:d9:49:f2:bb:1a:
        9e:c2:bb:36:94:00:38:95:2b:5b:99:e4:5f:87:80:81:b0:dc:
        19:12:6b:5b:f8:51:f5:1e:ca:c1:fc:89:68:2a:c4:ac:04:a9:
        68:7a:09:81:8a:2f:25:dd:60:93:92:39:d8:27:07:d7:0b:ae:
        47:09:2a:13:01:c0:74:40:e5:f6:1a:57:11:27:6b:f3:75:83:
        b9:8e:66:32:99:cc:b1:fd:b5:69:2b:9f:f1:77:5d:44:96:fb:
        d1:37:38:b3:6e:bb:0e:c4:06:e2:b8:80:81:85:d1:62:43:98:
        0c:ab:f3:bf:bb:42:32:50:40:cc:18:e9:fd:9d:89:0b:3b:3b:
        e8:ce:dc:41:7b:cf:7a:d9:c5:06:26:71:4a:1a:a5:fa:7c:0c:
        ab:d8:fc:7a:2d:67:a4:92:a8:c5:fc:b0:29:e2:7e:11:e4:32:
        d6:31:9e:61
-----BEGIN CERTIFICATE-----
MIIE5DCCA8ygAwIBAgIUJ48sUP4JYQnSgIarPSyre/kxUIIwDQYJKoZIhvcNAQEL
BQAwYzELMAkGA1UEBhMCQlIxEjAQBgNVBAoMCVRTSTIwMjQwMjEfMB0GA1UECwwW
VFNJMjAyNDAyIENBIENPTVBPTkVOVDEfMB0GA1UEAwwWVFNJMjAyNDAyIENBIENP
TVBPTkVOVDAeFw0yNTAyMDgxNjQzMzdaFw0yNjAyMDgxNjQzMzdaMHsxCzAJBgNV
BAYTAkJSMQswCQYDVQQIDAJHTzESMBAGA1UEBwwJTU9SUklOSE9TMRIwEAYDVQQK
DAlUU0kyMDI0MDIxHzAdBgNVBAsMFlRTSTIwMjQwMiBDQSBDT01QT05FTlQxFjAU
BgNVBAMMDVNhbXVlbCBUb2xlZG8wggEiMA0GCSqGSIb3DQEBAQUAA4IBDwAwggEK
AoIBAQDlvig7ibuP7u8qVrFTGBOLGuY4SR00sm9ZD1Fp4QcRshCQHKcy680u9yh0
hTi3rzP3HqVY/5fWJcyKoP0GkwWenMzOBSCWA2FnldoUM4qhpD+VFUkj6R1Ar2+E
OBxoLMxVVaeTBtQRfSdhx3xy9DxvA+l8fUSGGw/pq5+5puBVlxHnULa58dx/Sjsd
n43XqXW35tjJIrq20f891D65+JGILawnYBEFcftJ2YHQsRGrL0G6veCY+Pq5bCop
TRtvcxGMfCn/AMv1HjGFzv1p+mjGL7rzr4bo/Dk/nTyH5uKN6z3zsMw06bMY0cW0
VYKU3iOEXvmUQnMZ5nAqZdMxvmRLAgMBAAGjggF2MIIBcjAOBgNVHQ8BAf8EBAMC
BaAwCQYDVR0TBAIwADAdBgNVHSUEFjAUBggrBgEFBQcDAQYIKwYBBQUHAwIwHQYD
VR0OBBYEFHH4baZOr4aBUEv2yTSGBtJIYoLEMB8GA1UdIwQYMBaAFHO/9fUh1GKJ
yquEhlhCtELZuhEQMG0GCCsGAQUFBwEBBGEwXzAvBggrBgEFBQcwAoYjaHR0cDov
L3BraS5ibHVlLnNlL2NvbXBvbmVudC1jYS5jZXIwLAYIKwYBBQUHMAGGIGh0dHA6
Ly9jb21wb25lbnQtY2Eub2NzcC5ibHVlLnNlMDQGA1UdHwQtMCswKaAnoCWGI2h0
dHA6Ly9wa2kuYmx1ZS5zZS9jb21wb25lbnQtY2EuY3JsMBYGA1UdIAQPMA0wCwYJ
KwYBBAEAAQcIMDkGA1UdEQQyMDCCLnNhbXVlbHRvbGVkby50c2kyMDI0LmxhYmlu
ZnJhLnRpLWVkdWNhci5jb20uYnIwDQYJKoZIhvcNAQELBQADggEBAJUrgl1+ak+4
bBZSTQ62Ohy1o9pqBFVJeXZBWLC2O/eukmEgagwSZSdyPKE9YKs1XM1EzJSEeStF
tIlrP2ZbH8q+XBWpGR9VTUmYybSm6XBmvO7Wef7ZSfK7Gp7CuzaUADiVK1uZ5F+H
gIGw3BkSa1v4UfUeysH8iWgqxKwEqWh6CYGKLyXdYJOSOdgnB9cLrkcJKhMBwHRA
5fYaVxEna/N1g7mOZjKZzLH9tWkrn/F3XUSW+9E3OLNuuw7EBuK4gIGF0WJDmAyr
87+7QjJQQMwY6f2diQs7O+jO3EF7z3rZxQYmcUoapfp8DKvY/HotZ6SSqMX8sCni
fhHkMtYxnmE=
-----END CERTIFICATE-----
