Certificate:
    Data:
        Version: 3 (0x2)
        Serial Number:
            32:8e:0c:ef:13:a2:ec:3e:93:57:e6:04:d3:58:4c:c5:10:3b:2b:7a
        Signature Algorithm: sha256WithRSAEncryption
        Issuer: C=BR, O=TSI202402, OU=TSI202402 CA COMPONENT, CN=TSI202402 CA COMPONENT
        Validity
            Not Before: Feb  7 02:50:41 2025 GMT
            Not After : Feb  7 02:50:41 2026 GMT
        Subject: C=BR, ST=GO, L=MORRINHOS, O=TSI202402, OU=TSI202402 SERVER, CN=Samuel Toledo
        Subject Public Key Info:
            Public Key Algorithm: rsaEncryption
                Public-Key: (2048 bit)
                Modulus:
                    00:b8:8f:2e:28:53:28:7c:c0:4d:24:6a:06:3f:e2:
                    4c:a6:8e:e0:c8:a8:af:80:ad:5d:6f:d1:43:1a:cf:
                    47:a7:30:d9:ff:b8:35:bf:78:60:33:10:b8:59:e2:
                    21:12:e8:82:36:d6:84:30:47:16:d9:77:42:0f:c2:
                    44:77:b6:3f:e2:fe:da:d4:57:88:e9:18:3c:a2:e7:
                    90:1c:d7:c9:86:35:1f:15:9e:0d:12:55:b4:70:3d:
                    5d:89:4d:4a:38:d4:a8:1c:11:fc:12:61:ab:f9:08:
                    ca:af:51:77:d4:ee:21:fd:04:55:09:d3:93:8f:2d:
                    b7:1a:d0:95:e3:07:3b:5e:53:2f:0f:8f:ea:7e:ad:
                    45:88:dc:e1:5d:61:3b:1c:cd:e1:6c:8b:0e:d9:03:
                    13:0b:c3:75:e8:db:3b:b8:01:30:ea:21:61:7a:23:
                    e1:b5:1c:f5:f3:85:e2:d1:86:05:54:41:48:f4:7c:
                    9b:73:5a:4f:e3:00:2b:7b:c8:9c:f2:99:e7:6f:d7:
                    4c:43:fe:20:8c:79:45:79:ec:0a:06:6d:fe:3a:ce:
                    a0:77:4a:77:75:f9:a2:ba:ec:63:8c:6f:41:f8:69:
                    69:fc:8c:79:fb:f7:80:ae:a4:f3:77:8b:0c:b5:1d:
                    59:bc:6d:71:6e:6d:83:01:f6:af:d4:ce:10:fd:dc:
                    ce:3f
                Exponent: 65537 (0x10001)
        X509v3 extensions:
            X509v3 Key Usage: critical
                Digital Signature, Key Encipherment
            X509v3 Basic Constraints: 
                CA:FALSE
            X509v3 Extended Key Usage: 
                TLS Web Server Authentication, TLS Web Client Authentication
            X509v3 Subject Key Identifier: 
                54:48:4C:C8:2F:6F:DF:B4:66:DD:4E:FF:FE:B3:AD:38:2C:66:E8:15
            X509v3 Authority Key Identifier: 
                73:BF:F5:F5:21:D4:62:89:CA:AB:84:86:58:42:B4:42:D9:BA:11:10
            Authority Information Access: 
                CA Issuers - URI:http://pki.blue.se/component-ca.cer
                OCSP - URI:http://component-ca.ocsp.blue.se
            X509v3 CRL Distribution Points: 
                Full Name:
                  URI:http://pki.blue.se/component-ca.crl
            X509v3 Certificate Policies: 
                Policy: Blue Medium Assurance
            X509v3 Subject Alternative Name: 
                DNS:samueltoledo.tsi2024.labinfra.ti-educar.com.br
    Signature Algorithm: sha256WithRSAEncryption
    Signature Value:
        49:ee:8c:2e:a0:98:5d:50:c7:f8:19:b3:4f:f9:bc:f7:f5:45:
        7f:bd:fa:10:ff:e9:0b:bf:98:59:90:6c:e0:c3:70:56:a6:52:
        10:40:b5:5a:20:91:8c:90:a4:d3:92:a1:5d:9f:fe:b9:0d:74:
        16:1a:da:41:b1:1f:e6:82:60:90:d0:e5:0e:37:12:0b:fa:ae:
        41:0a:1a:46:43:ec:3d:84:e8:26:b9:29:95:e4:cb:e0:2a:be:
        a6:98:7c:5d:cf:7b:15:84:21:54:e9:83:8e:a7:8d:13:75:7c:
        5e:42:5c:54:18:f3:ba:fe:9d:ea:89:5f:4a:d7:c5:a2:83:13:
        8b:b1:86:e5:ee:6d:15:d4:ba:1e:8f:f7:da:06:bd:e8:50:a4:
        21:ad:65:64:32:c9:1f:27:8c:26:9e:37:19:3b:fa:3f:63:64:
        e1:c9:3c:fa:e3:61:00:66:27:87:64:f1:3a:7e:37:d5:e4:4e:
        87:82:b3:f1:ff:05:7a:29:2a:fd:a7:d3:cc:20:f9:09:78:46:
        c1:d1:2e:37:2b:de:d6:97:3c:66:9a:1f:db:79:b1:fe:0a:4a:
        b0:10:90:c8:f1:b0:7d:4d:99:81:23:8d:bc:94:42:27:65:a1:
        1c:f5:31:8a:1e:d2:28:c6:4f:fb:a7:6f:a5:bf:58:71:46:99:
        82:7f:20:0c
-----BEGIN CERTIFICATE-----
MIIE3jCCA8agAwIBAgIUMo4M7xOi7D6TV+YE01hMxRA7K3owDQYJKoZIhvcNAQEL
BQAwYzELMAkGA1UEBhMCQlIxEjAQBgNVBAoMCVRTSTIwMjQwMjEfMB0GA1UECwwW
VFNJMjAyNDAyIENBIENPTVBPTkVOVDEfMB0GA1UEAwwWVFNJMjAyNDAyIENBIENP
TVBPTkVOVDAeFw0yNTAyMDcwMjUwNDFaFw0yNjAyMDcwMjUwNDFaMHUxCzAJBgNV
BAYTAkJSMQswCQYDVQQIDAJHTzESMBAGA1UEBwwJTU9SUklOSE9TMRIwEAYDVQQK
DAlUU0kyMDI0MDIxGTAXBgNVBAsMEFRTSTIwMjQwMiBTRVJWRVIxFjAUBgNVBAMM
DVNhbXVlbCBUb2xlZG8wggEiMA0GCSqGSIb3DQEBAQUAA4IBDwAwggEKAoIBAQC4
jy4oUyh8wE0kagY/4kymjuDIqK+ArV1v0UMaz0enMNn/uDW/eGAzELhZ4iES6II2
1oQwRxbZd0IPwkR3tj/i/trUV4jpGDyi55Ac18mGNR8Vng0SVbRwPV2JTUo41Kgc
EfwSYav5CMqvUXfU7iH9BFUJ05OPLbca0JXjBzteUy8Pj+p+rUWI3OFdYTsczeFs
iw7ZAxMLw3Xo2zu4ATDqIWF6I+G1HPXzheLRhgVUQUj0fJtzWk/jACt7yJzymedv
10xD/iCMeUV57AoGbf46zqB3Snd1+aK67GOMb0H4aWn8jHn794CupPN3iwy1HVm8
bXFubYMB9q/UzhD93M4/AgMBAAGjggF2MIIBcjAOBgNVHQ8BAf8EBAMCBaAwCQYD
VR0TBAIwADAdBgNVHSUEFjAUBggrBgEFBQcDAQYIKwYBBQUHAwIwHQYDVR0OBBYE
FFRITMgvb9+0Zt1O//6zrTgsZugVMB8GA1UdIwQYMBaAFHO/9fUh1GKJyquEhlhC
tELZuhEQMG0GCCsGAQUFBwEBBGEwXzAvBggrBgEFBQcwAoYjaHR0cDovL3BraS5i
bHVlLnNlL2NvbXBvbmVudC1jYS5jZXIwLAYIKwYBBQUHMAGGIGh0dHA6Ly9jb21w
b25lbnQtY2Eub2NzcC5ibHVlLnNlMDQGA1UdHwQtMCswKaAnoCWGI2h0dHA6Ly9w
a2kuYmx1ZS5zZS9jb21wb25lbnQtY2EuY3JsMBYGA1UdIAQPMA0wCwYJKwYBBAEA
AQcIMDkGA1UdEQQyMDCCLnNhbXVlbHRvbGVkby50c2kyMDI0LmxhYmluZnJhLnRp
LWVkdWNhci5jb20uYnIwDQYJKoZIhvcNAQELBQADggEBAEnujC6gmF1Qx/gZs0/5
vPf1RX+9+hD/6Qu/mFmQbODDcFamUhBAtVogkYyQpNOSoV2f/rkNdBYa2kGxH+aC
YJDQ5Q43Egv6rkEKGkZD7D2E6Ca5KZXky+AqvqaYfF3PexWEIVTpg46njRN1fF5C
XFQY87r+neqJX0rXxaKDE4uxhuXubRXUuh6P99oGvehQpCGtZWQyyR8njCaeNxk7
+j9jZOHJPPrjYQBmJ4dk8Tp+N9XkToeCs/H/BXopKv2n08wg+Ql4RsHRLjcr3taX
PGaaH9t5sf4KSrAQkMjxsH1NmYEjjbyUQidloRz1MYoe0ijGT/unb6W/WHFGmYJ/
IAw=
-----END CERTIFICATE-----
Certificate:
    Data:
        Version: 3 (0x2)
        Serial Number:
            53:c5:56:43:dd:2f:a9:f7:4b:06:02:88:81:c8:7c:2e:4a:f2:f2:0a
        Signature Algorithm: sha256WithRSAEncryption
        Issuer: C=BR, O=TSI202402, OU=TSI202402 CA NETWORK, CN=TSI202402 CA NETWORK
        Validity
            Not Before: Feb  4 23:45:56 2025 GMT
            Not After : Feb  4 23:45:56 2035 GMT
        Subject: C=BR, O=TSI202402, OU=TSI202402 CA COMPONENT, CN=TSI202402 CA COMPONENT
        Subject Public Key Info:
            Public Key Algorithm: rsaEncryption
                Public-Key: (2048 bit)
                Modulus:
                    00:be:ea:47:d8:0d:bd:41:76:69:1e:ba:28:64:cb:
                    df:a4:78:46:0d:2e:29:7c:09:6b:c0:d1:8e:b1:20:
                    51:d0:26:e8:c5:43:3f:ee:0e:f2:9e:bb:94:99:52:
                    53:dd:b5:8a:4f:f4:c4:8c:49:11:8f:bc:15:7d:3d:
                    32:81:87:10:a7:77:59:b6:24:d4:de:cf:72:24:64:
                    4c:be:d7:3d:c2:4d:bb:d5:6f:8d:15:86:49:a6:06:
                    aa:56:28:50:84:7d:62:f0:b0:84:f1:f6:95:42:11:
                    1d:c4:b9:b0:64:e8:10:90:38:a5:9d:b5:68:84:72:
                    c3:4c:c5:71:b0:2b:da:6d:b5:d6:9d:c8:da:15:7a:
                    94:7d:9f:5a:28:90:3a:2e:0a:6a:0c:9a:15:08:cd:
                    86:3c:d9:07:03:d0:e6:09:78:40:19:8c:7f:a5:35:
                    b5:bd:58:aa:be:b4:80:b6:89:bf:34:f0:29:ea:09:
                    01:1f:e5:6f:c2:b3:d3:d5:7d:09:38:fd:26:1d:8b:
                    11:38:1a:e0:67:2f:07:b0:06:d6:ff:4d:4f:54:8f:
                    4f:86:6b:ed:1d:72:4d:85:ff:0a:e6:ba:69:77:1d:
                    61:0f:0c:5c:de:b8:56:94:5c:35:41:53:26:01:40:
                    a9:8e:7e:ed:89:94:ba:73:37:20:ae:c0:61:1d:86:
                    bc:99
                Exponent: 65537 (0x10001)
        X509v3 extensions:
            X509v3 Key Usage: critical
                Certificate Sign, CRL Sign
            X509v3 Basic Constraints: critical
                CA:TRUE, pathlen:0
            X509v3 Subject Key Identifier: 
                73:BF:F5:F5:21:D4:62:89:CA:AB:84:86:58:42:B4:42:D9:BA:11:10
            X509v3 Authority Key Identifier: 
                A9:55:E4:22:21:3D:9C:B6:9B:5E:CC:D8:33:C5:72:78:C1:D2:1C:29
            Authority Information Access: 
                CA Issuers - URI:http://pki.blue.se/network-ca.cer
            X509v3 CRL Distribution Points: 
                Full Name:
                  URI:http://pki.blue.se/network-ca.crl
            X509v3 Certificate Policies: 
                Policy: Blue Medium Assurance
                Policy: Blue Time Stamping
    Signature Algorithm: sha256WithRSAEncryption
    Signature Value:
        4e:80:91:b3:f8:65:77:8c:8b:5a:05:2d:f0:e5:b4:37:53:d4:
        03:3d:02:7a:25:e9:45:85:e1:22:cd:8e:0a:31:95:9b:12:5d:
        3c:ff:92:e0:d1:4e:78:57:e0:cb:36:c6:86:8a:42:1f:3b:ff:
        76:28:46:46:b9:ac:13:97:d0:98:df:57:42:ab:67:12:90:c3:
        6d:10:5f:a9:fb:6d:34:19:64:98:19:f9:ac:df:8b:73:d2:16:
        ef:b6:ee:c4:5d:3a:4c:bb:0e:35:58:20:07:25:63:e9:98:31:
        52:a9:6e:04:18:e7:fc:b4:e2:1c:06:3e:d6:25:a8:b5:02:f8:
        24:8e:b0:28:98:66:f8:b1:84:63:d7:60:ea:80:a4:ca:81:24:
        0a:f9:43:50:07:d6:9d:3a:84:38:c1:c8:1f:63:d9:ba:1b:34:
        5c:3e:d6:09:b9:c7:de:7e:bd:14:68:44:db:24:5e:65:20:68:
        94:09:13:46:33:59:8f:ad:8c:87:e4:1f:24:bd:a2:fb:08:92:
        d0:65:c9:9c:e0:5f:e5:c6:08:2a:b3:68:24:05:e4:8c:89:ce:
        39:d1:7b:40:78:ce:f3:91:0a:04:d6:29:06:de:51:c7:7a:60:
        f6:2b:4c:38:f9:0d:64:31:70:58:57:26:a3:e6:c2:af:fd:b0:
        55:e8:9d:9e
-----BEGIN CERTIFICATE-----
MIIEUDCCAzigAwIBAgIUU8VWQ90vqfdLBgKIgch8Lkry8gowDQYJKoZIhvcNAQEL
BQAwXzELMAkGA1UEBhMCQlIxEjAQBgNVBAoMCVRTSTIwMjQwMjEdMBsGA1UECwwU
VFNJMjAyNDAyIENBIE5FVFdPUksxHTAbBgNVBAMMFFRTSTIwMjQwMiBDQSBORVRX
T1JLMB4XDTI1MDIwNDIzNDU1NloXDTM1MDIwNDIzNDU1NlowYzELMAkGA1UEBhMC
QlIxEjAQBgNVBAoMCVRTSTIwMjQwMjEfMB0GA1UECwwWVFNJMjAyNDAyIENBIENP
TVBPTkVOVDEfMB0GA1UEAwwWVFNJMjAyNDAyIENBIENPTVBPTkVOVDCCASIwDQYJ
KoZIhvcNAQEBBQADggEPADCCAQoCggEBAL7qR9gNvUF2aR66KGTL36R4Rg0uKXwJ
a8DRjrEgUdAm6MVDP+4O8p67lJlSU921ik/0xIxJEY+8FX09MoGHEKd3WbYk1N7P
ciRkTL7XPcJNu9VvjRWGSaYGqlYoUIR9YvCwhPH2lUIRHcS5sGToEJA4pZ21aIRy
w0zFcbAr2m211p3I2hV6lH2fWiiQOi4KagyaFQjNhjzZBwPQ5gl4QBmMf6U1tb1Y
qr60gLaJvzTwKeoJAR/lb8Kz09V9CTj9Jh2LETga4GcvB7AG1v9NT1SPT4Zr7R1y
TYX/Cua6aXcdYQ8MXN64VpRcNUFTJgFAqY5+7YmUunM3IK7AYR2GvJkCAwEAAaOB
/zCB/DAOBgNVHQ8BAf8EBAMCAQYwEgYDVR0TAQH/BAgwBgEB/wIBADAdBgNVHQ4E
FgQUc7/19SHUYonKq4SGWEK0Qtm6ERAwHwYDVR0jBBgwFoAUqVXkIiE9nLabXszY
M8VyeMHSHCkwPQYIKwYBBQUHAQEEMTAvMC0GCCsGAQUFBzAChiFodHRwOi8vcGtp
LmJsdWUuc2UvbmV0d29yay1jYS5jZXIwMgYDVR0fBCswKTAnoCWgI4YhaHR0cDov
L3BraS5ibHVlLnNlL25ldHdvcmstY2EuY3JsMCMGA1UdIAQcMBowCwYJKwYBBAEA
AQcIMAsGCSsGAQQBAAEIAjANBgkqhkiG9w0BAQsFAAOCAQEAToCRs/hld4yLWgUt
8OW0N1PUAz0CeiXpRYXhIs2OCjGVmxJdPP+S4NFOeFfgyzbGhopCHzv/dihGRrms
E5fQmN9XQqtnEpDDbRBfqfttNBlkmBn5rN+Lc9IW77buxF06TLsONVggByVj6Zgx
UqluBBjn/LTiHAY+1iWotQL4JI6wKJhm+LGEY9dg6oCkyoEkCvlDUAfWnTqEOMHI
H2PZuhs0XD7WCbnH3n69FGhE2yReZSBolAkTRjNZj62Mh+QfJL2i+wiS0GXJnOBf
5cYIKrNoJAXkjInOOdF7QHjO85EKBNYpBt5Rx3pg9itMOPkNZDFwWFcmo+bCr/2w
Veidng==
-----END CERTIFICATE-----
Certificate:
    Data:
        Version: 3 (0x2)
        Serial Number:
            33:4d:ce:cd:83:49:28:a7:5d:c7:ed:85:cb:af:6f:2e:d8:eb:b2:d7
        Signature Algorithm: sha256WithRSAEncryption
        Issuer: C=BR, O=TSI202402, OU=TSI2024 - Certificadora de Servicos, CN=TSI Certificados - TLS CA
        Validity
            Not Before: Feb  4 23:01:56 2025 GMT
            Not After : Feb  4 23:01:56 2045 GMT
        Subject: C=BR, O=TSI202402, OU=TSI202402 CA NETWORK, CN=TSI202402 CA NETWORK
        Subject Public Key Info:
            Public Key Algorithm: rsaEncryption
                Public-Key: (2048 bit)
                Modulus:
                    00:d8:49:88:4d:cb:70:c5:b3:ab:29:e7:32:2b:ab:
                    04:40:ce:63:4a:8b:7b:fc:96:fd:96:44:5f:be:41:
                    c6:21:ff:94:a0:ed:99:26:33:a2:3d:49:fd:6b:98:
                    ac:78:c3:00:ec:ec:aa:bc:be:c0:e3:66:c3:14:6f:
                    1b:83:33:13:00:b1:9d:95:7c:ed:2c:c7:cd:1a:af:
                    e4:59:85:87:84:97:9f:e6:ad:7e:00:d0:e9:e6:17:
                    3c:e4:fa:87:94:61:34:cc:53:fa:ae:88:90:d3:5e:
                    b1:47:23:8e:33:6a:23:37:4b:6e:23:20:0b:28:0e:
                    d7:e0:0d:71:4f:f5:00:d2:5b:2a:81:bc:35:e3:8d:
                    5d:d3:ed:06:79:e5:cf:74:c0:81:e7:10:97:50:b0:
                    34:5c:13:c4:39:42:f1:3f:98:b6:4d:35:74:40:78:
                    17:bd:05:da:17:f7:d8:a5:e4:2a:a8:cc:87:04:d3:
                    c0:20:f0:1c:4c:42:10:43:47:12:5c:43:22:79:25:
                    61:ca:1f:4b:bc:e2:2b:fe:c9:c2:d2:45:ba:c4:ad:
                    4d:52:48:73:63:d2:c9:30:d3:c3:84:a7:f1:22:d2:
                    43:ba:86:50:0b:a9:9a:22:63:b0:65:50:04:53:bf:
                    9e:ef:19:c5:b1:76:07:18:e0:0c:84:53:29:67:6b:
                    52:bf
                Exponent: 65537 (0x10001)
        X509v3 extensions:
            X509v3 Key Usage: critical
                Certificate Sign, CRL Sign
            X509v3 Basic Constraints: critical
                CA:TRUE
            X509v3 Subject Key Identifier: 
                A9:55:E4:22:21:3D:9C:B6:9B:5E:CC:D8:33:C5:72:78:C1:D2:1C:29
            X509v3 Authority Key Identifier: 
                D9:CB:F6:FD:D1:F7:52:6A:C6:B9:41:3F:62:AE:B0:A1:93:E3:1B:13
            Authority Information Access: 
                CA Issuers - URI:http://pki.ts202402.mho.ifgoiano.edu.br/tls-ca.cer
            X509v3 CRL Distribution Points: 
                Full Name:
                  URI:http://pki.ts202402.mho.ifgoiano.edu.br/tls-ca.crl
    Signature Algorithm: sha256WithRSAEncryption
    Signature Value:
        86:c4:65:17:2d:96:26:67:16:4c:82:aa:2d:b0:54:b8:3b:7e:
        7d:20:5a:39:b8:c3:04:ba:aa:70:26:5f:f6:7d:12:81:de:24:
        26:22:9a:97:43:0e:2f:6b:a6:59:98:05:e2:c0:54:bd:0a:30:
        f1:0e:4c:f9:96:85:ea:22:13:c2:81:b4:e2:34:7e:db:2a:a8:
        a3:fc:51:08:dd:09:7b:5b:f6:a1:2c:c8:d1:7e:39:7c:b2:e3:
        71:a9:22:46:9c:83:25:32:10:02:43:a7:fd:f1:5d:36:e7:81:
        e4:de:84:c9:0a:68:1f:0c:f3:2f:1c:14:98:22:3e:3d:21:3f:
        47:60:12:0d:ea:4f:43:95:54:07:d5:14:14:b3:7d:31:6d:ea:
        76:de:18:0f:fb:63:ec:3b:91:28:3d:40:94:7f:b9:2a:b2:c9:
        f5:64:5a:55:11:53:6d:79:db:b3:f0:f2:70:1a:b8:be:93:aa:
        bc:71:44:8d:a4:1c:06:ec:58:82:c0:40:53:a8:0f:70:47:bb:
        c6:46:0c:d2:73:6e:26:a1:62:05:11:93:a1:49:76:ce:fa:4f:
        01:37:c5:41:4d:13:f2:c3:ee:9a:72:8a:5d:ba:8f:b8:3d:a8:
        52:55:87:5d:ac:e3:86:4a:17:0a:88:bd:83:eb:9d:6f:29:d5:
        d3:2f:ef:b2
-----BEGIN CERTIFICATE-----
MIIEWjCCA0KgAwIBAgIUM03OzYNJKKddx+2Fy69vLtjrstcwDQYJKoZIhvcNAQEL
BQAwczELMAkGA1UEBhMCQlIxEjAQBgNVBAoMCVRTSTIwMjQwMjEsMCoGA1UECwwj
VFNJMjAyNCAtIENlcnRpZmljYWRvcmEgZGUgU2Vydmljb3MxIjAgBgNVBAMMGVRT
SSBDZXJ0aWZpY2Fkb3MgLSBUTFMgQ0EwHhcNMjUwMjA0MjMwMTU2WhcNNDUwMjA0
MjMwMTU2WjBfMQswCQYDVQQGEwJCUjESMBAGA1UECgwJVFNJMjAyNDAyMR0wGwYD
VQQLDBRUU0kyMDI0MDIgQ0EgTkVUV09SSzEdMBsGA1UEAwwUVFNJMjAyNDAyIENB
IE5FVFdPUkswggEiMA0GCSqGSIb3DQEBAQUAA4IBDwAwggEKAoIBAQDYSYhNy3DF
s6sp5zIrqwRAzmNKi3v8lv2WRF++QcYh/5Sg7ZkmM6I9Sf1rmKx4wwDs7Kq8vsDj
ZsMUbxuDMxMAsZ2VfO0sx80ar+RZhYeEl5/mrX4A0OnmFzzk+oeUYTTMU/quiJDT
XrFHI44zaiM3S24jIAsoDtfgDXFP9QDSWyqBvDXjjV3T7QZ55c90wIHnEJdQsDRc
E8Q5QvE/mLZNNXRAeBe9BdoX99il5CqozIcE08Ag8BxMQhBDRxJcQyJ5JWHKH0u8
4iv+ycLSRbrErU1SSHNj0skw08OEp/Ei0kO6hlALqZoiY7BlUARTv57vGcWxdgcY
4AyEUylna1K/AgMBAAGjgfkwgfYwDgYDVR0PAQH/BAQDAgEGMA8GA1UdEwEB/wQF
MAMBAf8wHQYDVR0OBBYEFKlV5CIhPZy2m17M2DPFcnjB0hwpMB8GA1UdIwQYMBaA
FNnL9v3R91JqxrlBP2KusKGT4xsTME4GCCsGAQUFBwEBBEIwQDA+BggrBgEFBQcw
AoYyaHR0cDovL3BraS50czIwMjQwMi5taG8uaWZnb2lhbm8uZWR1LmJyL3Rscy1j
YS5jZXIwQwYDVR0fBDwwOjA4oDagNIYyaHR0cDovL3BraS50czIwMjQwMi5taG8u
aWZnb2lhbm8uZWR1LmJyL3Rscy1jYS5jcmwwDQYJKoZIhvcNAQELBQADggEBAIbE
ZRctliZnFkyCqi2wVLg7fn0gWjm4wwS6qnAmX/Z9EoHeJCYimpdDDi9rplmYBeLA
VL0KMPEOTPmWheoiE8KBtOI0ftsqqKP8UQjdCXtb9qEsyNF+OXyy43GpIkacgyUy
EAJDp/3xXTbngeTehMkKaB8M8y8cFJgiPj0hP0dgEg3qT0OVVAfVFBSzfTFt6nbe
GA/7Y+w7kSg9QJR/uSqyyfVkWlURU21527Pw8nAauL6TqrxxRI2kHAbsWILAQFOo
D3BHu8ZGDNJzbiahYgURk6FJds76TwE3xUFNE/LD7ppyil26j7g9qFJVh12s44ZK
FwqIvYPrnW8p1dMv77I=
-----END CERTIFICATE-----
