Certificate:
    Data:
        Version: 3 (0x2)
        Serial Number:
            63:82:7f:c8:2d:f6:b3:36:4b:dc:31:4d:cb:ec:f7:b3:66:15:bf:34
        Signature Algorithm: sha256WithRSAEncryption
        Issuer: C=BR, O=TSI202402, OU=TSI202402 CA IDENTITY, CN=TSI202402 CA IDENTITY
        Validity
            Not Before: Feb  7 02:56:50 2025 GMT
            Not After : Feb  7 02:56:50 2027 GMT
        Subject: C=BR, ST=GO, L=MORRINHOS, O=TSI202402, OU=TSI202402 IDENTITY2, CN=Samuel Toledo/emailAddress=damucod@gmail.com
        Subject Public Key Info:
            Public Key Algorithm: rsaEncryption
                Public-Key: (2048 bit)
                Modulus:
                    00:c0:01:87:03:23:9a:c2:49:ba:f5:90:07:64:97:
                    26:53:c0:5d:82:e8:00:c8:69:f0:cf:bc:1e:32:d4:
                    76:02:0d:8e:6b:4e:ea:b5:99:8f:f9:b9:ec:23:cf:
                    c3:8c:7f:56:32:da:58:08:e0:c7:45:03:9c:c8:a3:
                    3b:65:9d:5b:31:fd:9c:b7:76:64:9c:47:dc:30:a9:
                    0a:64:9c:84:e7:4d:3a:11:63:6a:48:06:96:3c:10:
                    c2:ef:d7:ec:eb:f6:ef:dc:77:88:9e:de:75:59:56:
                    cd:e5:ff:9b:c9:5e:c1:cb:cc:78:70:84:ad:96:40:
                    42:e0:66:1e:0c:76:0f:27:bd:df:99:a0:62:db:aa:
                    e9:44:f9:de:19:16:46:3c:b5:16:d2:71:db:bc:1e:
                    a8:0a:e3:82:aa:12:24:0f:a7:48:87:9f:83:11:e3:
                    d4:c6:59:33:8f:01:08:18:d3:98:8f:2d:3f:a4:4f:
                    ca:2f:71:d9:2c:72:56:09:40:f7:c6:d0:84:cb:03:
                    77:bc:7e:31:c1:87:b6:1b:ac:1d:3b:78:87:81:90:
                    7c:16:f3:8f:57:69:9b:5a:10:4a:21:70:3a:4e:76:
                    ab:37:f6:62:98:44:76:28:ea:e6:58:20:07:f2:98:
                    7b:99:15:e8:38:8e:0e:be:b6:82:89:62:9c:a1:6a:
                    fa:77
                Exponent: 65537 (0x10001)
        X509v3 extensions:
            X509v3 Key Usage: critical
                Key Encipherment, Data Encipherment
            X509v3 Basic Constraints: 
                CA:FALSE
            X509v3 Extended Key Usage: 
                E-mail Protection, Microsoft Encrypted File System
            X509v3 Subject Key Identifier: 
                0B:11:53:2D:1B:A6:8E:F7:B2:07:74:2E:DE:07:E5:BC:58:17:FF:AC
            X509v3 Authority Key Identifier: 
                A5:3B:D8:F7:E5:C6:4A:B4:02:39:5C:A3:3A:3D:31:CE:F7:59:AA:9E
            Authority Information Access: 
                CA Issuers - URI:http://pki.blue.se/identity-ca.cer
                OCSP - URI:http://identity-ca.ocsp.blue.se
            X509v3 CRL Distribution Points: 
                Full Name:
                  URI:http://pki.blue.se/identity-ca.crl
            X509v3 Certificate Policies: 
                Policy: Blue High Assurance
            X509v3 Subject Alternative Name: 
                email:damucod@gmail.com
    Signature Algorithm: sha256WithRSAEncryption
    Signature Value:
        79:df:cf:b7:ce:40:67:4b:d9:b8:0c:69:79:cf:3f:85:29:b0:
        b0:93:03:d7:e4:8d:cd:3f:c4:cd:31:32:43:69:27:0d:f1:73:
        93:a8:9d:39:ec:5f:d3:80:7a:d8:92:77:e0:5d:01:56:a2:1b:
        9e:1d:e0:3b:28:01:ac:44:aa:87:c9:de:37:02:64:3e:cb:9f:
        ac:42:67:d1:30:ee:34:99:0d:51:67:d6:00:c0:48:39:ad:8c:
        9c:8f:7a:4e:f8:4d:6c:96:a8:7e:bb:6a:5f:30:9c:02:48:74:
        b2:cf:c0:00:04:7c:c4:7c:bb:6a:0f:25:0e:e5:f9:df:63:4a:
        d5:6b:0f:ac:13:31:84:fd:41:f6:30:89:a8:28:bf:d7:35:5b:
        5e:ec:46:4e:96:e9:48:7e:99:c5:d6:4d:94:dd:db:b3:dd:0f:
        0a:79:e6:29:03:2b:0e:33:7b:83:2b:13:ad:ad:fb:46:fb:f2:
        ae:9f:ff:71:8d:53:bf:8b:58:ec:3e:d6:77:df:31:a8:3d:35:
        bf:e0:d0:59:5b:85:af:0e:a1:66:52:95:b6:84:08:c2:e1:0d:
        95:89:85:22:d2:96:1a:9d:7d:38:64:3f:15:86:df:ff:fa:f6:
        7c:16:39:cc:aa:ec:d4:9c:d7:5d:b2:e7:72:0c:00:0a:b9:33:
        c9:54:84:4a
-----BEGIN CERTIFICATE-----
MIIE5DCCA8ygAwIBAgIUY4J/yC32szZL3DFNy+z3s2YVvzQwDQYJKoZIhvcNAQEL
BQAwYTELMAkGA1UEBhMCQlIxEjAQBgNVBAoMCVRTSTIwMjQwMjEeMBwGA1UECwwV
VFNJMjAyNDAyIENBIElERU5USVRZMR4wHAYDVQQDDBVUU0kyMDI0MDIgQ0EgSURF
TlRJVFkwHhcNMjUwMjA3MDI1NjUwWhcNMjcwMjA3MDI1NjUwWjCBmjELMAkGA1UE
BhMCQlIxCzAJBgNVBAgMAkdPMRIwEAYDVQQHDAlNT1JSSU5IT1MxEjAQBgNVBAoM
CVRTSTIwMjQwMjEcMBoGA1UECwwTVFNJMjAyNDAyIElERU5USVRZMjEWMBQGA1UE
AwwNU2FtdWVsIFRvbGVkbzEgMB4GCSqGSIb3DQEJARYRZGFtdWNvZEBnbWFpbC5j
b20wggEiMA0GCSqGSIb3DQEBAQUAA4IBDwAwggEKAoIBAQDAAYcDI5rCSbr1kAdk
lyZTwF2C6ADIafDPvB4y1HYCDY5rTuq1mY/5uewjz8OMf1Yy2lgI4MdFA5zIoztl
nVsx/Zy3dmScR9wwqQpknITnTToRY2pIBpY8EMLv1+zr9u/cd4ie3nVZVs3l/5vJ
XsHLzHhwhK2WQELgZh4Mdg8nvd+ZoGLbqulE+d4ZFkY8tRbScdu8HqgK44KqEiQP
p0iHn4MR49TGWTOPAQgY05iPLT+kT8ovcdksclYJQPfG0ITLA3e8fjHBh7YbrB07
eIeBkHwW849XaZtaEEohcDpOdqs39mKYRHYo6uZYIAfymHuZFeg4jg6+toKJYpyh
avp3AgMBAAGjggFYMIIBVDAOBgNVHQ8BAf8EBAMCBDAwCQYDVR0TBAIwADAfBgNV
HSUEGDAWBggrBgEFBQcDBAYKKwYBBAGCNwoDBDAdBgNVHQ4EFgQUCxFTLRumjvey
B3Qu3gflvFgX/6wwHwYDVR0jBBgwFoAUpTvY9+XGSrQCOVyjOj0xzvdZqp4wawYI
KwYBBQUHAQEEXzBdMC4GCCsGAQUFBzAChiJodHRwOi8vcGtpLmJsdWUuc2UvaWRl
bnRpdHktY2EuY2VyMCsGCCsGAQUFBzABhh9odHRwOi8vaWRlbnRpdHktY2Eub2Nz
cC5ibHVlLnNlMDMGA1UdHwQsMCowKKAmoCSGImh0dHA6Ly9wa2kuYmx1ZS5zZS9p
ZGVudGl0eS1jYS5jcmwwFgYDVR0gBA8wDTALBgkrBgEEAQABBwowHAYDVR0RBBUw
E4ERZGFtdWNvZEBnbWFpbC5jb20wDQYJKoZIhvcNAQELBQADggEBAHnfz7fOQGdL
2bgMaXnPP4UpsLCTA9fkjc0/xM0xMkNpJw3xc5OonTnsX9OAetiSd+BdAVaiG54d
4DsoAaxEqofJ3jcCZD7Ln6xCZ9Ew7jSZDVFn1gDASDmtjJyPek74TWyWqH67al8w
nAJIdLLPwAAEfMR8u2oPJQ7l+d9jStVrD6wTMYT9QfYwiagov9c1W17sRk6W6Uh+
mcXWTZTd27PdDwp55ikDKw4ze4MrE62t+0b78q6f/3GNU7+LWOw+1nffMag9Nb/g
0Flbha8OoWZSlbaECMLhDZWJhSLSlhqdfThkPxWG3//69nwWOcyq7NSc112y53IM
AAq5M8lUhEo=
-----END CERTIFICATE-----
