Certificate:
    Data:
        Version: 3 (0x2)
        Serial Number:
            65:32:3c:05:be:c4:5a:a1:09:59:e2:b3:04:0e:b8:23:57:43:92:b5
        Signature Algorithm: sha256WithRSAEncryption
        Issuer: C=BR, O=TSI202402, OU=TSI202402 CA IDENTITY, CN=TSI202402 CA IDENTITY
        Validity
            Not Before: Feb  4 23:48:34 2025 GMT
            Not After : Feb  4 23:48:34 2027 GMT
        Subject: C=BR, ST=GO, L=MORRINHOS, O=TSI202402, OU=TSI202402 IDENTIDADE, CN=Samuel Toledo/emailAddress=damucod@gmail.com
        Subject Public Key Info:
            Public Key Algorithm: rsaEncryption
                Public-Key: (2048 bit)
                Modulus:
                    00:c1:b5:16:e9:bc:57:c7:04:c1:0d:c4:e6:04:d3:
                    ba:b1:89:f7:00:85:7e:bb:15:31:80:42:66:6a:b2:
                    98:3d:91:ea:22:9d:ef:92:4a:50:eb:4d:28:08:a3:
                    a8:c2:4d:64:42:4b:20:a7:cc:97:6c:9f:eb:4a:f3:
                    44:8d:13:70:8f:b1:ba:7a:52:3a:38:7e:06:43:6e:
                    fc:4a:d2:10:16:d2:59:5a:f4:2d:f0:45:2b:6a:1c:
                    7e:a8:f0:6d:78:c0:f0:29:6d:7b:6c:ba:c4:98:85:
                    00:b6:5b:02:7a:61:2c:89:c4:b1:05:64:74:db:bb:
                    31:79:f0:6f:ff:37:06:70:ec:ce:8b:e1:96:12:90:
                    f4:1d:6a:94:13:4b:5d:d3:bf:10:20:9f:5b:95:34:
                    1d:9d:2d:0b:1c:e7:d1:b0:7b:a3:15:02:f0:f2:9a:
                    a6:14:06:3a:b6:7a:25:f6:01:b3:21:4c:0e:fd:92:
                    0b:f3:4d:13:e8:0c:2a:88:77:4a:ff:3f:f3:76:a6:
                    c8:30:f1:03:e6:51:a4:0f:2a:e3:f8:f1:ad:85:3f:
                    fb:cb:36:0f:d1:5e:15:c5:68:e8:b6:98:cc:65:a2:
                    b4:56:62:6d:e6:c0:93:63:ea:eb:37:a8:35:cb:e2:
                    e4:d1:00:56:9b:bb:e0:c1:3f:0b:c7:13:83:bb:00:
                    ec:b1
                Exponent: 65537 (0x10001)
        X509v3 extensions:
            X509v3 Key Usage: critical
                Digital Signature
            X509v3 Basic Constraints: 
                CA:FALSE
            X509v3 Extended Key Usage: 
                E-mail Protection, TLS Web Client Authentication, Microsoft Smartcard Login
            X509v3 Subject Key Identifier: 
                92:7F:B8:95:F4:2D:BF:D3:F9:AD:06:06:3C:E2:FF:A7:57:18:96:28
            X509v3 Authority Key Identifier: 
                A5:3B:D8:F7:E5:C6:4A:B4:02:39:5C:A3:3A:3D:31:CE:F7:59:AA:9E
            Authority Information Access: 
                CA Issuers - URI:http://pki.blue.se/identity-ca.cer
                OCSP - URI:http://identity-ca.ocsp.blue.se
            X509v3 CRL Distribution Points: 
                Full Name:
                  URI:http://pki.blue.se/identity-ca.crl
            X509v3 Certificate Policies: 
                Policy: Blue High Assurance
            X509v3 Subject Alternative Name: 
                email:damucod@gmail.com
    Signature Algorithm: sha256WithRSAEncryption
    Signature Value:
        5f:4f:71:a9:57:ac:fd:1d:90:1e:8b:dd:55:5f:12:68:b5:b3:
        68:6f:3d:37:24:0c:f8:df:e0:53:02:2c:75:74:f3:c7:f9:8b:
        d4:97:54:1e:a6:f1:db:fa:09:28:a8:31:15:b5:0a:69:c7:f9:
        32:c6:7e:7a:72:16:13:6e:21:81:b7:dd:0a:64:9a:88:a5:63:
        7e:25:19:5a:a7:db:39:83:22:34:2a:d9:6a:e6:fc:3b:80:85:
        a7:b0:a9:85:6d:b5:66:19:8a:e8:67:a3:6a:f9:7a:c3:a6:be:
        87:95:40:aa:29:e9:e1:5b:64:cb:db:04:51:bb:53:d2:79:96:
        18:fd:50:2d:67:d8:96:f2:0a:16:6e:fa:5d:0b:5f:92:ba:6e:
        99:13:5f:7b:07:f2:b6:4f:4d:c1:86:fd:e9:20:c3:bb:fe:84:
        79:21:e6:f8:7e:de:ad:d2:a0:50:17:00:f3:a3:c6:6d:04:eb:
        b4:3b:da:35:5e:be:31:fe:65:dc:de:12:8d:54:c1:2c:21:dc:
        f7:e2:b7:6d:07:ae:ab:c0:b9:4e:5d:80:9b:32:2e:6d:6c:93:
        a4:46:e9:0e:22:c9:06:ec:ef:db:50:ca:b1:f3:dc:0a:0e:0c:
        25:22:18:6d:fd:5d:10:a1:36:92:5c:66:a9:fc:ec:b7:2f:63:
        10:28:6a:37
-----BEGIN CERTIFICATE-----
MIIE7zCCA9egAwIBAgIUZTI8Bb7EWqEJWeKzBA64I1dDkrUwDQYJKoZIhvcNAQEL
BQAwYTELMAkGA1UEBhMCQlIxEjAQBgNVBAoMCVRTSTIwMjQwMjEeMBwGA1UECwwV
VFNJMjAyNDAyIENBIElERU5USVRZMR4wHAYDVQQDDBVUU0kyMDI0MDIgQ0EgSURF
TlRJVFkwHhcNMjUwMjA0MjM0ODM0WhcNMjcwMjA0MjM0ODM0WjCBmzELMAkGA1UE
BhMCQlIxCzAJBgNVBAgMAkdPMRIwEAYDVQQHDAlNT1JSSU5IT1MxEjAQBgNVBAoM
CVRTSTIwMjQwMjEdMBsGA1UECwwUVFNJMjAyNDAyIElERU5USURBREUxFjAUBgNV
BAMMDVNhbXVlbCBUb2xlZG8xIDAeBgkqhkiG9w0BCQEWEWRhbXVjb2RAZ21haWwu
Y29tMIIBIjANBgkqhkiG9w0BAQEFAAOCAQ8AMIIBCgKCAQEAwbUW6bxXxwTBDcTm
BNO6sYn3AIV+uxUxgEJmarKYPZHqIp3vkkpQ600oCKOowk1kQksgp8yXbJ/rSvNE
jRNwj7G6elI6OH4GQ278StIQFtJZWvQt8EUrahx+qPBteMDwKW17bLrEmIUAtlsC
emEsicSxBWR027sxefBv/zcGcOzOi+GWEpD0HWqUE0td078QIJ9blTQdnS0LHOfR
sHujFQLw8pqmFAY6tnol9gGzIUwO/ZIL800T6AwqiHdK/z/zdqbIMPED5lGkDyrj
+PGthT/7yzYP0V4VxWjotpjMZaK0VmJt5sCTY+rrN6g1y+Lk0QBWm7vgwT8LxxOD
uwDssQIDAQABo4IBYjCCAV4wDgYDVR0PAQH/BAQDAgeAMAkGA1UdEwQCMAAwKQYD
VR0lBCIwIAYIKwYBBQUHAwQGCCsGAQUFBwMCBgorBgEEAYI3FAICMB0GA1UdDgQW
BBSSf7iV9C2/0/mtBgY84v+nVxiWKDAfBgNVHSMEGDAWgBSlO9j35cZKtAI5XKM6
PTHO91mqnjBrBggrBgEFBQcBAQRfMF0wLgYIKwYBBQUHMAKGImh0dHA6Ly9wa2ku
Ymx1ZS5zZS9pZGVudGl0eS1jYS5jZXIwKwYIKwYBBQUHMAGGH2h0dHA6Ly9pZGVu
dGl0eS1jYS5vY3NwLmJsdWUuc2UwMwYDVR0fBCwwKjAooCagJIYiaHR0cDovL3Br
aS5ibHVlLnNlL2lkZW50aXR5LWNhLmNybDAWBgNVHSAEDzANMAsGCSsGAQQBAAEH
CjAcBgNVHREEFTATgRFkYW11Y29kQGdtYWlsLmNvbTANBgkqhkiG9w0BAQsFAAOC
AQEAX09xqVes/R2QHovdVV8SaLWzaG89NyQM+N/gUwIsdXTzx/mL1JdUHqbx2/oJ
KKgxFbUKacf5MsZ+enIWE24hgbfdCmSaiKVjfiUZWqfbOYMiNCrZaub8O4CFp7Cp
hW21ZhmK6Gejavl6w6a+h5VAqinp4Vtky9sEUbtT0nmWGP1QLWfYlvIKFm76XQtf
krpumRNfewfytk9NwYb96SDDu/6EeSHm+H7erdKgUBcA86PGbQTrtDvaNV6+Mf5l
3N4SjVTBLCHc9+K3bQeuq8C5Tl2AmzIubWyTpEbpDiLJBuzv21DKsfPcCg4MJSIY
bf1dEKE2klxmqfzsty9jEChqNw==
-----END CERTIFICATE-----
