Certificate:
    Data:
        Version: 3 (0x2)
        Serial Number:
            53:c5:56:43:dd:2f:a9:f7:4b:06:02:88:81:c8:7c:2e:4a:f2:f2:0a
        Signature Algorithm: sha256WithRSAEncryption
        Issuer: C=BR, O=TSI202402, OU=TSI202402 CA NETWORK, CN=TSI202402 CA NETWORK
        Validity
            Not Before: Feb  4 23:45:56 2025 GMT
            Not After : Feb  4 23:45:56 2035 GMT
        Subject: C=BR, O=TSI202402, OU=TSI202402 CA COMPONENT, CN=TSI202402 CA COMPONENT
        Subject Public Key Info:
            Public Key Algorithm: rsaEncryption
                Public-Key: (2048 bit)
                Modulus:
                    00:be:ea:47:d8:0d:bd:41:76:69:1e:ba:28:64:cb:
                    df:a4:78:46:0d:2e:29:7c:09:6b:c0:d1:8e:b1:20:
                    51:d0:26:e8:c5:43:3f:ee:0e:f2:9e:bb:94:99:52:
                    53:dd:b5:8a:4f:f4:c4:8c:49:11:8f:bc:15:7d:3d:
                    32:81:87:10:a7:77:59:b6:24:d4:de:cf:72:24:64:
                    4c:be:d7:3d:c2:4d:bb:d5:6f:8d:15:86:49:a6:06:
                    aa:56:28:50:84:7d:62:f0:b0:84:f1:f6:95:42:11:
                    1d:c4:b9:b0:64:e8:10:90:38:a5:9d:b5:68:84:72:
                    c3:4c:c5:71:b0:2b:da:6d:b5:d6:9d:c8:da:15:7a:
                    94:7d:9f:5a:28:90:3a:2e:0a:6a:0c:9a:15:08:cd:
                    86:3c:d9:07:03:d0:e6:09:78:40:19:8c:7f:a5:35:
                    b5:bd:58:aa:be:b4:80:b6:89:bf:34:f0:29:ea:09:
                    01:1f:e5:6f:c2:b3:d3:d5:7d:09:38:fd:26:1d:8b:
                    11:38:1a:e0:67:2f:07:b0:06:d6:ff:4d:4f:54:8f:
                    4f:86:6b:ed:1d:72:4d:85:ff:0a:e6:ba:69:77:1d:
                    61:0f:0c:5c:de:b8:56:94:5c:35:41:53:26:01:40:
                    a9:8e:7e:ed:89:94:ba:73:37:20:ae:c0:61:1d:86:
                    bc:99
                Exponent: 65537 (0x10001)
        X509v3 extensions:
            X509v3 Key Usage: critical
                Certificate Sign, CRL Sign
            X509v3 Basic Constraints: critical
                CA:TRUE, pathlen:0
            X509v3 Subject Key Identifier: 
                73:BF:F5:F5:21:D4:62:89:CA:AB:84:86:58:42:B4:42:D9:BA:11:10
            X509v3 Authority Key Identifier: 
                A9:55:E4:22:21:3D:9C:B6:9B:5E:CC:D8:33:C5:72:78:C1:D2:1C:29
            Authority Information Access: 
                CA Issuers - URI:http://pki.blue.se/network-ca.cer
            X509v3 CRL Distribution Points: 
                Full Name:
                  URI:http://pki.blue.se/network-ca.crl
            X509v3 Certificate Policies: 
                Policy: Blue Medium Assurance
                Policy: Blue Time Stamping
    Signature Algorithm: sha256WithRSAEncryption
    Signature Value:
        4e:80:91:b3:f8:65:77:8c:8b:5a:05:2d:f0:e5:b4:37:53:d4:
        03:3d:02:7a:25:e9:45:85:e1:22:cd:8e:0a:31:95:9b:12:5d:
        3c:ff:92:e0:d1:4e:78:57:e0:cb:36:c6:86:8a:42:1f:3b:ff:
        76:28:46:46:b9:ac:13:97:d0:98:df:57:42:ab:67:12:90:c3:
        6d:10:5f:a9:fb:6d:34:19:64:98:19:f9:ac:df:8b:73:d2:16:
        ef:b6:ee:c4:5d:3a:4c:bb:0e:35:58:20:07:25:63:e9:98:31:
        52:a9:6e:04:18:e7:fc:b4:e2:1c:06:3e:d6:25:a8:b5:02:f8:
        24:8e:b0:28:98:66:f8:b1:84:63:d7:60:ea:80:a4:ca:81:24:
        0a:f9:43:50:07:d6:9d:3a:84:38:c1:c8:1f:63:d9:ba:1b:34:
        5c:3e:d6:09:b9:c7:de:7e:bd:14:68:44:db:24:5e:65:20:68:
        94:09:13:46:33:59:8f:ad:8c:87:e4:1f:24:bd:a2:fb:08:92:
        d0:65:c9:9c:e0:5f:e5:c6:08:2a:b3:68:24:05:e4:8c:89:ce:
        39:d1:7b:40:78:ce:f3:91:0a:04:d6:29:06:de:51:c7:7a:60:
        f6:2b:4c:38:f9:0d:64:31:70:58:57:26:a3:e6:c2:af:fd:b0:
        55:e8:9d:9e
-----BEGIN CERTIFICATE-----
MIIEUDCCAzigAwIBAgIUU8VWQ90vqfdLBgKIgch8Lkry8gowDQYJKoZIhvcNAQEL
BQAwXzELMAkGA1UEBhMCQlIxEjAQBgNVBAoMCVRTSTIwMjQwMjEdMBsGA1UECwwU
VFNJMjAyNDAyIENBIE5FVFdPUksxHTAbBgNVBAMMFFRTSTIwMjQwMiBDQSBORVRX
T1JLMB4XDTI1MDIwNDIzNDU1NloXDTM1MDIwNDIzNDU1NlowYzELMAkGA1UEBhMC
QlIxEjAQBgNVBAoMCVRTSTIwMjQwMjEfMB0GA1UECwwWVFNJMjAyNDAyIENBIENP
TVBPTkVOVDEfMB0GA1UEAwwWVFNJMjAyNDAyIENBIENPTVBPTkVOVDCCASIwDQYJ
KoZIhvcNAQEBBQADggEPADCCAQoCggEBAL7qR9gNvUF2aR66KGTL36R4Rg0uKXwJ
a8DRjrEgUdAm6MVDP+4O8p67lJlSU921ik/0xIxJEY+8FX09MoGHEKd3WbYk1N7P
ciRkTL7XPcJNu9VvjRWGSaYGqlYoUIR9YvCwhPH2lUIRHcS5sGToEJA4pZ21aIRy
w0zFcbAr2m211p3I2hV6lH2fWiiQOi4KagyaFQjNhjzZBwPQ5gl4QBmMf6U1tb1Y
qr60gLaJvzTwKeoJAR/lb8Kz09V9CTj9Jh2LETga4GcvB7AG1v9NT1SPT4Zr7R1y
TYX/Cua6aXcdYQ8MXN64VpRcNUFTJgFAqY5+7YmUunM3IK7AYR2GvJkCAwEAAaOB
/zCB/DAOBgNVHQ8BAf8EBAMCAQYwEgYDVR0TAQH/BAgwBgEB/wIBADAdBgNVHQ4E
FgQUc7/19SHUYonKq4SGWEK0Qtm6ERAwHwYDVR0jBBgwFoAUqVXkIiE9nLabXszY
M8VyeMHSHCkwPQYIKwYBBQUHAQEEMTAvMC0GCCsGAQUFBzAChiFodHRwOi8vcGtp
LmJsdWUuc2UvbmV0d29yay1jYS5jZXIwMgYDVR0fBCswKTAnoCWgI4YhaHR0cDov
L3BraS5ibHVlLnNlL25ldHdvcmstY2EuY3JsMCMGA1UdIAQcMBowCwYJKwYBBAEA
AQcIMAsGCSsGAQQBAAEIAjANBgkqhkiG9w0BAQsFAAOCAQEAToCRs/hld4yLWgUt
8OW0N1PUAz0CeiXpRYXhIs2OCjGVmxJdPP+S4NFOeFfgyzbGhopCHzv/dihGRrms
E5fQmN9XQqtnEpDDbRBfqfttNBlkmBn5rN+Lc9IW77buxF06TLsONVggByVj6Zgx
UqluBBjn/LTiHAY+1iWotQL4JI6wKJhm+LGEY9dg6oCkyoEkCvlDUAfWnTqEOMHI
H2PZuhs0XD7WCbnH3n69FGhE2yReZSBolAkTRjNZj62Mh+QfJL2i+wiS0GXJnOBf
5cYIKrNoJAXkjInOOdF7QHjO85EKBNYpBt5Rx3pg9itMOPkNZDFwWFcmo+bCr/2w
Veidng==
-----END CERTIFICATE-----
